(lp0
S'evalTranstac-0707-offline-e002'
p1
aS'evalTranstac-0707-offline-e007'
p2
aS'evalTranstac-0707-offline-e009'
p3
aS'evalTranstac-0707-offline-e010'
p4
aS'evalTranstac-0707-offline-e012'
p5
aS'evalTranstac-0707-offline-e016'
p6
aS'evalTranstac-0707-offline-e017'
p7
aS'evalTranstac-0707-offline-e018'
p8
aS'evalTranstac-0707-offline-e020'
p9
aS'evalTranstac-0707-offline-e021'
p10
aS'evalTranstac-0707-offline-e025'
p11
aS'evalTranstac-0707-offline-e032'
p12
aS'evalTranstac-0707-offline-e033'
p13
aS'evalTranstac-0707-offline-e038'
p14
aS'evalTranstac-0707-offline-e039'
p15
aS'evalTranstac-0707-offline-e040'
p16
aS'evalTranstac-0707-offline-e041'
p17
aS'evalTranstac-0707-offline-e042'
p18
aS'evalTranstac-0707-offline-e043'
p19
aS'evalTranstac-0707-offline-e044'
p20
aS'evalTranstac-0707-offline-e045'
p21
aS'evalTranstac-0707-offline-e047'
p22
aS'evalTranstac-0707-offline-e049'
p23
aS'evalTranstac-0707-offline-e050'
p24
aS'evalTranstac-0707-offline-e051'
p25
aS'evalTranstac-0707-offline-e053'
p26
aS'evalTranstac-0707-offline-e054'
p27
aS'evalTranstac-0707-offline-e055'
p28
aS'evalTranstac-0707-offline-e056'
p29
aS'evalTranstac-0707-offline-e057'
p30
aS'evalTranstac-0707-offline-e059'
p31
aS'evalTranstac-0707-offline-e061'
p32
aS'evalTranstac-0707-offline-e062'
p33
aS'evalTranstac-0707-offline-e063'
p34
aS'evalTranstac-0707-offline-e066'
p35
aS'evalTranstac-0707-offline-e067'
p36
aS'evalTranstac-0707-offline-e068'
p37
aS'evalTranstac-0707-offline-e071'
p38
aS'evalTranstac-0707-offline-e072'
p39
aS'evalTranstac-0707-offline-e073'
p40
aS'evalTranstac-0707-offline-e074'
p41
aS'evalTranstac-0707-offline-e077'
p42
aS'evalTranstac-0707-offline-e078'
p43
aS'evalTranstac-0707-offline-e080'
p44
aS'evalTranstac-0707-offline-e081'
p45
aS'evalTranstac-0707-offline-e082'
p46
aS'evalTranstac-0707-offline-e083'
p47
aS'evalTranstac-0707-offline-e085'
p48
aS'evalTranstac-0707-offline-e086'
p49
aS'evalTranstac-0707-offline-e087'
p50
aS'evalTranstac-0707-offline-e089'
p51
aS'evalTranstac-0707-offline-e090'
p52
aS'evalTranstac-0707-offline-e091'
p53
aS'evalTranstac-0707-offline-e092'
p54
aS'evalTranstac-0707-offline-e093'
p55
aS'evalTranstac-0707-offline-e095'
p56
aS'evalTranstac-0707-offline-e098'
p57
aS'evalTranstac-0707-offline-e099'
p58
aS'evalTranstac-0707-offline-e101'
p59
aS'evalTranstac-0707-offline-e103'
p60
aS'evalTranstac-0707-offline-e104'
p61
aS'evalTranstac-0707-offline-e105'
p62
aS'evalTranstac-0707-offline-e106'
p63
aS'evalTranstac-0707-offline-e107'
p64
aS'evalTranstac-0707-offline-e113'
p65
aS'evalTranstac-0707-offline-e114'
p66
aS'evalTranstac-0707-offline-e116'
p67
aS'evalTranstac-0707-offline-e117'
p68
aS'evalTranstac-0707-offline-e118'
p69
aS'evalTranstac-0707-offline-e119'
p70
aS'evalTranstac-0707-offline-e120'
p71
aS'evalTranstac-0707-offline-e121'
p72
aS'evalTranstac-0707-offline-e122'
p73
aS'evalTranstac-0707-offline-e123'
p74
aS'evalTranstac-0707-offline-e124'
p75
aS'evalTranstac-0707-offline-e125'
p76
aS'evalTranstac-0707-offline-e126'
p77
aS'evalTranstac-0707-offline-e127'
p78
aS'evalTranstac-0707-offline-e128'
p79
aS'evalTranstac-0707-offline-e129'
p80
aS'evalTranstac-0707-offline-e130'
p81
aS'evalTranstac-0707-offline-e131'
p82
aS'evalTranstac-0707-offline-e133'
p83
aS'evalTranstac-0707-offline-e135'
p84
aS'evalTranstac-0707-offline-e136'
p85
aS'evalTranstac-0707-offline-e138'
p86
aS'evalTranstac-0707-offline-e141'
p87
aS'evalTranstac-0707-offline-e142'
p88
aS'evalTranstac-0707-offline-e145'
p89
aS'evalTranstac-0707-offline-e146'
p90
aS'evalTranstac-0707-offline-e149'
p91
aS'evalTranstac-0707-offline-e150'
p92
aS'evalTranstac-0707-offline-e151'
p93
aS'evalTranstac-0707-offline-e153'
p94
aS'evalTranstac-0707-offline-e154'
p95
aS'evalTranstac-0707-offline-e155'
p96
aS'evalTranstac-0707-offline-e157'
p97
aS'evalTranstac-0707-offline-e159'
p98
aS'evalTranstac-0707-offline-e161'
p99
aS'evalTranstac-0707-offline-e164'
p100
aS'evalTranstac-0707-offline-e165'
p101
aS'evalTranstac-0707-offline-e169'
p102
aS'evalTranstac-0707-offline-e170'
p103
aS'evalTranstac-0707-offline-e171'
p104
aS'evalTranstac-0707-offline-e173'
p105
aS'evalTranstac-0707-offline-e175'
p106
aS'evalTranstac-0707-offline-e176'
p107
aS'evalTranstac-0707-offline-e177'
p108
aS'evalTranstac-0707-offline-e178'
p109
aS'evalTranstac-0707-offline-e179'
p110
aS'evalTranstac-0707-offline-e180'
p111
aS'evalTranstac-0707-offline-e181'
p112
aS'evalTranstac-0707-offline-e183'
p113
aS'evalTranstac-0707-offline-e185'
p114
aS'evalTranstac-0707-offline-e188'
p115
aS'evalTranstac-0707-offline-e189'
p116
aS'evalTranstac-0707-offline-e191'
p117
aS'evalTranstac-0707-offline-e192'
p118
aS'evalTranstac-0707-offline-e193'
p119
aS'evalTranstac-0707-offline-e194'
p120
aS'evalTranstac-0707-offline-e196'
p121
aS'evalTranstac-0707-offline-e198'
p122
aS'evalTranstac-0707-offline-e200'
p123
aS'evalTranstac-0707-offline-e202'
p124
aS'evalTranstac-0707-offline-e206'
p125
aS'evalTranstac-0707-offline-e207'
p126
aS'evalTranstac-0707-offline-e208'
p127
aS'evalTranstac-0707-offline-e210'
p128
aS'evalTranstac-0707-offline-e211'
p129
aS'evalTranstac-0707-offline-e213'
p130
aS'evalTranstac-0707-offline-e214'
p131
aS'evalTranstac-0707-offline-e215'
p132
aS'evalTranstac-0707-offline-e216'
p133
aS'evalTranstac-0707-offline-e218'
p134
aS'evalTranstac-0707-offline-e219'
p135
aS'evalTranstac-0707-offline-e224'
p136
aS'evalTranstac-0707-offline-e227'
p137
aS'evalTranstac-0707-offline-e229'
p138
aS'evalTranstac-0707-offline-e230'
p139
aS'evalTranstac-0707-offline-e231'
p140
aS'evalTranstac-0707-offline-e234'
p141
aS'evalTranstac-0707-offline-e235'
p142
aS'evalTranstac-0707-offline-e236'
p143
aS'evalTranstac-0707-offline-e237'
p144
aS'evalTranstac-0707-offline-e238'
p145
aS'evalTranstac-0707-offline-e241'
p146
aS'evalTranstac-0707-offline-e243'
p147
aS'evalTranstac-0707-offline-e244'
p148
aS'evalTranstac-0707-offline-e245'
p149
aS'evalTranstac-0707-offline-e246'
p150
aS'evalTranstac-0707-offline-e247'
p151
aS'evalTranstac-0707-offline-e249'
p152
aS'evalTranstac-0707-offline-e250'
p153
aS'evalTranstac-0707-offline-e251'
p154
aS'evalTranstac-0707-offline-e252'
p155
aS'evalTranstac-0707-offline-e254'
p156
aS'evalTranstac-0707-offline-e255'
p157
aS'evalTranstac-0707-offline-e256'
p158
aS'evalTranstac-0707-offline-e257'
p159
aS'evalTranstac-0707-offline-e259'
p160
aS'evalTranstac-0707-offline-e261'
p161
aS'evalTranstac-0707-offline-e262'
p162
aS'evalTranstac-0707-offline-e263'
p163
aS'evalTranstac-0707-offline-e264'
p164
aS'evalTranstac-0707-offline-e265'
p165
aS'evalTranstac-0707-offline-e266'
p166
aS'evalTranstac-0707-offline-e267'
p167
aS'evalTranstac-0707-offline-e268'
p168
aS'evalTranstac-0707-offline-e272'
p169
aS'evalTranstac-0707-offline-e273'
p170
aS'evalTranstac-0707-offline-e274'
p171
aS'evalTranstac-0707-offline-e275'
p172
aS'evalTranstac-0707-offline-e276'
p173
aS'evalTranstac-0707-offline-e277'
p174
aS'evalTranstac-0707-offline-e278'
p175
aS'evalTranstac-0707-offline-e279'
p176
aS'evalTranstac-0707-offline-e280'
p177
aS'evalTranstac-0707-offline-e281'
p178
aS'evalTranstac-0707-offline-e282'
p179
aS'evalTranstac-0707-offline-e283'
p180
aS'evalTranstac-0707-offline-e284'
p181
aS'evalTranstac-0707-offline-e285'
p182
aS'evalTranstac-0707-offline-e286'
p183
aS'evalTranstac-0707-offline-e287'
p184
aS'evalTranstac-0707-offline-e288'
p185
aS'evalTranstac-0707-offline-e292'
p186
aS'evalTranstac-0707-offline-e295'
p187
aS'evalTranstac-0707-offline-e296'
p188
aS'evalTranstac-0707-offline-e297'
p189
aS'evalTranstac-0707-offline-e300'
p190
aS'evalTranstac-0707-offline-e301'
p191
aS'evalTranstac-0707-offline-e302'
p192
aS'evalTranstac-0707-offline-e303'
p193
aS'evalTranstac-0707-offline-e304'
p194
aS'evalTranstac-0707-offline-e306'
p195
aS'evalTranstac-0707-offline-e307'
p196
aS'evalTranstac-0707-offline-e308'
p197
aS'evalTranstac-0707-offline-e309'
p198
aS'evalTranstac-0707-offline-e310'
p199
aS'evalTranstac-0707-offline-e311'
p200
aS'evalTranstac-0707-offline-e312'
p201
aS'evalTranstac-0707-offline-e313'
p202
aS'evalTranstac-0707-offline-e315'
p203
aS'evalTranstac-0707-offline-e316'
p204
aS'evalTranstac-0707-offline-e317'
p205
aS'evalTranstac-0707-offline-e318'
p206
aS'evalTranstac-0707-offline-e319'
p207
aS'evalTranstac-0707-offline-e320'
p208
aS'evalTranstac-0707-offline-e321'
p209
aS'evalTranstac-0707-offline-e322'
p210
aS'evalTranstac-0707-offline-e323'
p211
aS'evalTranstac-0707-offline-e324'
p212
aS'evalTranstac-0707-offline-e325'
p213
aS'evalTranstac-0707-offline-e326'
p214
aS'evalTranstac-0707-offline-e328'
p215
aS'evalTranstac-0707-offline-e329'
p216
aS'evalTranstac-0707-offline-e331'
p217
aS'evalTranstac-0707-offline-e332'
p218
aS'evalTranstac-0707-offline-e333'
p219
aS'evalTranstac-0707-offline-e334'
p220
aS'evalTranstac-0707-offline-e335'
p221
aS'evalTranstac-0707-offline-e336'
p222
aS'evalTranstac-0707-offline-e337'
p223
aS'evalTranstac-0707-offline-e339'
p224
aS'evalTranstac-0707-offline-e340'
p225
aS'evalTranstac-0707-offline-e342'
p226
aS'evalTranstac-0707-offline-e344'
p227
aS'evalTranstac-0707-offline-e346'
p228
aS'evalTranstac-0707-offline-e347'
p229
aS'evalTranstac-0707-offline-e348'
p230
aS'evalTranstac-0707-offline-e349'
p231
aS'evalTranstac-0707-offline-e350'
p232
aS'evalTranstac-0707-offline-e351'
p233
aS'evalTranstac-0707-offline-e354'
p234
aS'evalTranstac-0707-offline-e355'
p235
aS'evalTranstac-0707-offline-e357'
p236
aS'evalTranstac-0707-offline-e358'
p237
aS'evalTranstac-0707-offline-e361'
p238
aS'evalTranstac-0707-offline-e364'
p239
aS'evalTranstac-0707-offline-e366'
p240
aS'evalTranstac-0707-offline-e367'
p241
aS'evalTranstac-0707-offline-e369'
p242
aS'evalTranstac-0707-offline-e370'
p243
aS'evalTranstac-0707-offline-e371'
p244
aS'evalTranstac-0707-offline-e372'
p245
aS'evalTranstac-0707-offline-e373'
p246
aS'evalTranstac-0707-offline-e375'
p247
aS'evalTranstac-0707-offline-e376'
p248
aS'evalTranstac-0707-offline-e377'
p249
aS'evalTranstac-0707-offline-e379'
p250
aS'evalTranstac-0707-offline-e380'
p251
aS'evalTranstac-0707-offline-e381'
p252
aS'evalTranstac-0707-offline-e383'
p253
aS'evalTranstac-0707-offline-e386'
p254
aS'evalTranstac-0707-offline-e387'
p255
aS'evalTranstac-0707-offline-e388'
p256
aS'evalTranstac-0707-offline-e389'
p257
aS'evalTranstac-0707-offline-e390'
p258
aS'evalTranstac-0707-offline-e391'
p259
aS'evalTranstac-0707-offline-e392'
p260
aS'evalTranstac-0707-offline-e393'
p261
aS'evalTranstac-0707-offline-e394'
p262
aS'evalTranstac-0707-offline-e395'
p263
aS'evalTranstac-0707-offline-e396'
p264
aS'evalTranstac-0707-offline-e397'
p265
aS'evalTranstac-0707-offline-e398'
p266
aS'evalTranstac-0707-offline-e399'
p267
aS'evalTranstac-0707-offline-e400'
p268
aS'evalTranstac-0707-offline-e401'
p269
aS'evalTranstac-0707-offline-e402'
p270
aS'evalTranstac-0707-offline-e403'
p271
aS'evalTranstac-0707-offline-e404'
p272
aS'evalTranstac-0707-offline-e405'
p273
aS'evalTranstac-0707-offline-e406'
p274
aS'evalTranstac-0707-offline-e407'
p275
aS'evalTranstac-0707-offline-e408'
p276
aS'evalTranstac-0707-offline-e411'
p277
aS'evalTranstac-0707-offline-e412'
p278
aS'evalTranstac-0707-offline-e413'
p279
aS'evalTranstac-0707-offline-e414'
p280
aS'evalTranstac-0707-offline-e415'
p281
aS'evalTranstac-0707-offline-e416'
p282
aS'evalTranstac-0707-offline-e417'
p283
aS'evalTranstac-0707-offline-e419'
p284
aS'evalTranstac-0707-offline-e425'
p285
aS'evalTranstac-0707-offline-e426'
p286
aS'evalTranstac-0707-offline-e427'
p287
aS'evalTranstac-0707-offline-e428'
p288
aS'evalTranstac-0707-offline-e433'
p289
aS'evalTranstac-0707-offline-e440'
p290
aS'evalTranstac-0707-offline-e441'
p291
aS'evalTranstac-0707-offline-e443'
p292
aS'evalTranstac-0707-offline-e444'
p293
aS'evalTranstac-0707-offline-e446'
p294
aS'evalTranstac-0707-offline-e448'
p295
aS'evalTranstac-0707-offline-e449'
p296
aS'evalTranstac-0707-offline-e451'
p297
aS'evalTranstac-0707-offline-e452'
p298
aS'evalTranstac-0707-offline-e453'
p299
aS'evalTranstac-0707-offline-e454'
p300
aS'evalTranstac-0707-offline-e455'
p301
aS'evalTranstac-0707-offline-e456'
p302
aS'evalTranstac-0707-offline-e457'
p303
aS'evalTranstac-0707-offline-e459'
p304
aS'evalTranstac-0707-offline-e460'
p305
aS'evalTranstac-0707-offline-e462'
p306
aS'evalTranstac-0707-offline-e464'
p307
aS'evalTranstac-0707-offline-e465'
p308
aS'evalTranstac-0707-offline-e467'
p309
aS'evalTranstac-0707-offline-e468'
p310
aS'evalTranstac-0707-offline-e469'
p311
aS'evalTranstac-0707-offline-e471'
p312
aS'evalTranstac-0707-offline-e474'
p313
aS'evalTranstac-0707-offline-e479'
p314
aS'evalTranstac-0707-offline-e480'
p315
aS'evalTranstac-0707-offline-e482'
p316
aS'evalTranstac-0707-offline-e490'
p317
aS'evalTranstac-0707-offline-e491'
p318
aS'evalTranstac-0707-offline-e494'
p319
aS'evalTranstac-0707-offline-e495'
p320
aS'evalTranstac-0707-offline-e497'
p321
aS'evalTranstac-0707-offline-e498'
p322
aS'evalTranstac-0707-offline-e500'
p323
aS'evalTranstac-0707-offline-e502'
p324
aS'evalTranstac-0707-offline-e505'
p325
aS'evalTranstac-0707-offline-e507'
p326
aS'evalTranstac-0707-offline-e508'
p327
aS'evalTranstac-0707-offline-e509'
p328
aS'evalTranstac-0707-offline-e511'
p329
aS'evalTranstac-0707-offline-e516'
p330
aS'evalTranstac-0707-offline-e517'
p331
aS'evalTranstac-0707-offline-e519'
p332
aS'evalTranstac-0707-offline-e520'
p333
aS'evalTranstac-0707-offline-e521'
p334
aS'evalTranstac-0707-offline-e522'
p335
aS'evalTranstac-0707-offline-e523'
p336
aS'evalTranstac-0707-offline-e524'
p337
aS'evalTranstac-0707-offline-e525'
p338
aS'evalTranstac-0707-offline-e526'
p339
aS'evalTranstac-0707-offline-e527'
p340
aS'evalTranstac-0707-offline-e528'
p341
aS'evalTranstac-0707-offline-e529'
p342
aS'evalTranstac-0707-offline-e531'
p343
aS'evalTranstac-0707-offline-e533'
p344
aS'evalTranstac-0707-offline-e534'
p345
aS'evalTranstac-0707-offline-e535'
p346
aS'evalTranstac-0707-offline-e536'
p347
aS'evalTranstac-0707-offline-e538'
p348
aS'evalTranstac-0707-offline-e542'
p349
aS'evalTranstac-0707-offline-e544'
p350
aS'evalTranstac-0707-offline-e550'
p351
aS'evalTranstac-0707-offline-e553'
p352
aS'evalTranstac-0707-offline-e554'
p353
aS'evalTranstac-0707-offline-e555'
p354
aS'evalTranstac-0707-offline-e556'
p355
aS'evalTranstac-0707-offline-e557'
p356
aS'evalTranstac-0707-offline-e558'
p357
aS'evalTranstac-0707-offline-e559'
p358
aS'evalTranstac-0707-offline-e561'
p359
aS'evalTranstac-0707-offline-e563'
p360
aS'evalTranstac-0707-offline-e564'
p361
aS'evalTranstac-0707-offline-e565'
p362
aS'evalTranstac-0806-open-offline-e1'
p363
aS'evalTranstac-0806-open-offline-e10'
p364
aS'evalTranstac-0806-open-offline-e100'
p365
aS'evalTranstac-0806-open-offline-e101'
p366
aS'evalTranstac-0806-open-offline-e104'
p367
aS'evalTranstac-0806-open-offline-e106'
p368
aS'evalTranstac-0806-open-offline-e108'
p369
aS'evalTranstac-0806-open-offline-e109'
p370
aS'evalTranstac-0806-open-offline-e11'
p371
aS'evalTranstac-0806-open-offline-e110'
p372
aS'evalTranstac-0806-open-offline-e112'
p373
aS'evalTranstac-0806-open-offline-e113'
p374
aS'evalTranstac-0806-open-offline-e114'
p375
aS'evalTranstac-0806-open-offline-e116'
p376
aS'evalTranstac-0806-open-offline-e117'
p377
aS'evalTranstac-0806-open-offline-e118'
p378
aS'evalTranstac-0806-open-offline-e119'
p379
aS'evalTranstac-0806-open-offline-e12'
p380
aS'evalTranstac-0806-open-offline-e120'
p381
aS'evalTranstac-0806-open-offline-e121'
p382
aS'evalTranstac-0806-open-offline-e122'
p383
aS'evalTranstac-0806-open-offline-e123'
p384
aS'evalTranstac-0806-open-offline-e124'
p385
aS'evalTranstac-0806-open-offline-e125'
p386
aS'evalTranstac-0806-open-offline-e126'
p387
aS'evalTranstac-0806-open-offline-e127'
p388
aS'evalTranstac-0806-open-offline-e128'
p389
aS'evalTranstac-0806-open-offline-e129'
p390
aS'evalTranstac-0806-open-offline-e13'
p391
aS'evalTranstac-0806-open-offline-e131'
p392
aS'evalTranstac-0806-open-offline-e133'
p393
aS'evalTranstac-0806-open-offline-e134'
p394
aS'evalTranstac-0806-open-offline-e136'
p395
aS'evalTranstac-0806-open-offline-e138'
p396
aS'evalTranstac-0806-open-offline-e139'
p397
aS'evalTranstac-0806-open-offline-e14'
p398
aS'evalTranstac-0806-open-offline-e140'
p399
aS'evalTranstac-0806-open-offline-e141'
p400
aS'evalTranstac-0806-open-offline-e142'
p401
aS'evalTranstac-0806-open-offline-e148'
p402
aS'evalTranstac-0806-open-offline-e149'
p403
aS'evalTranstac-0806-open-offline-e15'
p404
aS'evalTranstac-0806-open-offline-e150'
p405
aS'evalTranstac-0806-open-offline-e152'
p406
aS'evalTranstac-0806-open-offline-e154'
p407
aS'evalTranstac-0806-open-offline-e155'
p408
aS'evalTranstac-0806-open-offline-e156'
p409
aS'evalTranstac-0806-open-offline-e157'
p410
aS'evalTranstac-0806-open-offline-e158'
p411
aS'evalTranstac-0806-open-offline-e159'
p412
aS'evalTranstac-0806-open-offline-e16'
p413
aS'evalTranstac-0806-open-offline-e161'
p414
aS'evalTranstac-0806-open-offline-e162'
p415
aS'evalTranstac-0806-open-offline-e165'
p416
aS'evalTranstac-0806-open-offline-e166'
p417
aS'evalTranstac-0806-open-offline-e167'
p418
aS'evalTranstac-0806-open-offline-e168'
p419
aS'evalTranstac-0806-open-offline-e17'
p420
aS'evalTranstac-0806-open-offline-e171'
p421
aS'evalTranstac-0806-open-offline-e172'
p422
aS'evalTranstac-0806-open-offline-e173'
p423
aS'evalTranstac-0806-open-offline-e174'
p424
aS'evalTranstac-0806-open-offline-e175'
p425
aS'evalTranstac-0806-open-offline-e176'
p426
aS'evalTranstac-0806-open-offline-e179'
p427
aS'evalTranstac-0806-open-offline-e18'
p428
aS'evalTranstac-0806-open-offline-e181'
p429
aS'evalTranstac-0806-open-offline-e182'
p430
aS'evalTranstac-0806-open-offline-e183'
p431
aS'evalTranstac-0806-open-offline-e184'
p432
aS'evalTranstac-0806-open-offline-e186'
p433
aS'evalTranstac-0806-open-offline-e187'
p434
aS'evalTranstac-0806-open-offline-e19'
p435
aS'evalTranstac-0806-open-offline-e190'
p436
aS'evalTranstac-0806-open-offline-e191'
p437
aS'evalTranstac-0806-open-offline-e192'
p438
aS'evalTranstac-0806-open-offline-e193'
p439
aS'evalTranstac-0806-open-offline-e194'
p440
aS'evalTranstac-0806-open-offline-e195'
p441
aS'evalTranstac-0806-open-offline-e196'
p442
aS'evalTranstac-0806-open-offline-e198'
p443
aS'evalTranstac-0806-open-offline-e2'
p444
aS'evalTranstac-0806-open-offline-e20'
p445
aS'evalTranstac-0806-open-offline-e200'
p446
aS'evalTranstac-0806-open-offline-e201'
p447
aS'evalTranstac-0806-open-offline-e203'
p448
aS'evalTranstac-0806-open-offline-e206'
p449
aS'evalTranstac-0806-open-offline-e207'
p450
aS'evalTranstac-0806-open-offline-e208'
p451
aS'evalTranstac-0806-open-offline-e209'
p452
aS'evalTranstac-0806-open-offline-e21'
p453
aS'evalTranstac-0806-open-offline-e210'
p454
aS'evalTranstac-0806-open-offline-e211'
p455
aS'evalTranstac-0806-open-offline-e213'
p456
aS'evalTranstac-0806-open-offline-e214'
p457
aS'evalTranstac-0806-open-offline-e215'
p458
aS'evalTranstac-0806-open-offline-e216'
p459
aS'evalTranstac-0806-open-offline-e217'
p460
aS'evalTranstac-0806-open-offline-e218'
p461
aS'evalTranstac-0806-open-offline-e219'
p462
aS'evalTranstac-0806-open-offline-e22'
p463
aS'evalTranstac-0806-open-offline-e220'
p464
aS'evalTranstac-0806-open-offline-e221'
p465
aS'evalTranstac-0806-open-offline-e222'
p466
aS'evalTranstac-0806-open-offline-e223'
p467
aS'evalTranstac-0806-open-offline-e224'
p468
aS'evalTranstac-0806-open-offline-e225'
p469
aS'evalTranstac-0806-open-offline-e226'
p470
aS'evalTranstac-0806-open-offline-e227'
p471
aS'evalTranstac-0806-open-offline-e228'
p472
aS'evalTranstac-0806-open-offline-e229'
p473
aS'evalTranstac-0806-open-offline-e23'
p474
aS'evalTranstac-0806-open-offline-e230'
p475
aS'evalTranstac-0806-open-offline-e231'
p476
aS'evalTranstac-0806-open-offline-e234'
p477
aS'evalTranstac-0806-open-offline-e235'
p478
aS'evalTranstac-0806-open-offline-e236'
p479
aS'evalTranstac-0806-open-offline-e237'
p480
aS'evalTranstac-0806-open-offline-e238'
p481
aS'evalTranstac-0806-open-offline-e239'
p482
aS'evalTranstac-0806-open-offline-e24'
p483
aS'evalTranstac-0806-open-offline-e240'
p484
aS'evalTranstac-0806-open-offline-e241'
p485
aS'evalTranstac-0806-open-offline-e242'
p486
aS'evalTranstac-0806-open-offline-e243'
p487
aS'evalTranstac-0806-open-offline-e244'
p488
aS'evalTranstac-0806-open-offline-e245'
p489
aS'evalTranstac-0806-open-offline-e246'
p490
aS'evalTranstac-0806-open-offline-e248'
p491
aS'evalTranstac-0806-open-offline-e249'
p492
aS'evalTranstac-0806-open-offline-e250'
p493
aS'evalTranstac-0806-open-offline-e251'
p494
aS'evalTranstac-0806-open-offline-e252'
p495
aS'evalTranstac-0806-open-offline-e253'
p496
aS'evalTranstac-0806-open-offline-e255'
p497
aS'evalTranstac-0806-open-offline-e256'
p498
aS'evalTranstac-0806-open-offline-e258'
p499
aS'evalTranstac-0806-open-offline-e260'
p500
aS'evalTranstac-0806-open-offline-e261'
p501
aS'evalTranstac-0806-open-offline-e262'
p502
aS'evalTranstac-0806-open-offline-e263'
p503
aS'evalTranstac-0806-open-offline-e264'
p504
aS'evalTranstac-0806-open-offline-e265'
p505
aS'evalTranstac-0806-open-offline-e266'
p506
aS'evalTranstac-0806-open-offline-e267'
p507
aS'evalTranstac-0806-open-offline-e268'
p508
aS'evalTranstac-0806-open-offline-e269'
p509
aS'evalTranstac-0806-open-offline-e27'
p510
aS'evalTranstac-0806-open-offline-e270'
p511
aS'evalTranstac-0806-open-offline-e272'
p512
aS'evalTranstac-0806-open-offline-e274'
p513
aS'evalTranstac-0806-open-offline-e275'
p514
aS'evalTranstac-0806-open-offline-e276'
p515
aS'evalTranstac-0806-open-offline-e277'
p516
aS'evalTranstac-0806-open-offline-e278'
p517
aS'evalTranstac-0806-open-offline-e279'
p518
aS'evalTranstac-0806-open-offline-e28'
p519
aS'evalTranstac-0806-open-offline-e280'
p520
aS'evalTranstac-0806-open-offline-e281'
p521
aS'evalTranstac-0806-open-offline-e282'
p522
aS'evalTranstac-0806-open-offline-e283'
p523
aS'evalTranstac-0806-open-offline-e284'
p524
aS'evalTranstac-0806-open-offline-e285'
p525
aS'evalTranstac-0806-open-offline-e286'
p526
aS'evalTranstac-0806-open-offline-e289'
p527
aS'evalTranstac-0806-open-offline-e29'
p528
aS'evalTranstac-0806-open-offline-e290'
p529
aS'evalTranstac-0806-open-offline-e291'
p530
aS'evalTranstac-0806-open-offline-e292'
p531
aS'evalTranstac-0806-open-offline-e293'
p532
aS'evalTranstac-0806-open-offline-e295'
p533
aS'evalTranstac-0806-open-offline-e296'
p534
aS'evalTranstac-0806-open-offline-e297'
p535
aS'evalTranstac-0806-open-offline-e298'
p536
aS'evalTranstac-0806-open-offline-e299'
p537
aS'evalTranstac-0806-open-offline-e3'
p538
aS'evalTranstac-0806-open-offline-e30'
p539
aS'evalTranstac-0806-open-offline-e300'
p540
aS'evalTranstac-0806-open-offline-e301'
p541
aS'evalTranstac-0806-open-offline-e302'
p542
aS'evalTranstac-0806-open-offline-e303'
p543
aS'evalTranstac-0806-open-offline-e304'
p544
aS'evalTranstac-0806-open-offline-e305'
p545
aS'evalTranstac-0806-open-offline-e306'
p546
aS'evalTranstac-0806-open-offline-e307'
p547
aS'evalTranstac-0806-open-offline-e308'
p548
aS'evalTranstac-0806-open-offline-e309'
p549
aS'evalTranstac-0806-open-offline-e31'
p550
aS'evalTranstac-0806-open-offline-e310'
p551
aS'evalTranstac-0806-open-offline-e312'
p552
aS'evalTranstac-0806-open-offline-e313'
p553
aS'evalTranstac-0806-open-offline-e315'
p554
aS'evalTranstac-0806-open-offline-e316'
p555
aS'evalTranstac-0806-open-offline-e317'
p556
aS'evalTranstac-0806-open-offline-e318'
p557
aS'evalTranstac-0806-open-offline-e319'
p558
aS'evalTranstac-0806-open-offline-e32'
p559
aS'evalTranstac-0806-open-offline-e320'
p560
aS'evalTranstac-0806-open-offline-e323'
p561
aS'evalTranstac-0806-open-offline-e324'
p562
aS'evalTranstac-0806-open-offline-e325'
p563
aS'evalTranstac-0806-open-offline-e326'
p564
aS'evalTranstac-0806-open-offline-e327'
p565
aS'evalTranstac-0806-open-offline-e329'
p566
aS'evalTranstac-0806-open-offline-e33'
p567
aS'evalTranstac-0806-open-offline-e331'
p568
aS'evalTranstac-0806-open-offline-e332'
p569
aS'evalTranstac-0806-open-offline-e333'
p570
aS'evalTranstac-0806-open-offline-e334'
p571
aS'evalTranstac-0806-open-offline-e335'
p572
aS'evalTranstac-0806-open-offline-e336'
p573
aS'evalTranstac-0806-open-offline-e337'
p574
aS'evalTranstac-0806-open-offline-e338'
p575
aS'evalTranstac-0806-open-offline-e339'
p576
aS'evalTranstac-0806-open-offline-e34'
p577
aS'evalTranstac-0806-open-offline-e341'
p578
aS'evalTranstac-0806-open-offline-e342'
p579
aS'evalTranstac-0806-open-offline-e344'
p580
aS'evalTranstac-0806-open-offline-e345'
p581
aS'evalTranstac-0806-open-offline-e346'
p582
aS'evalTranstac-0806-open-offline-e347'
p583
aS'evalTranstac-0806-open-offline-e348'
p584
aS'evalTranstac-0806-open-offline-e349'
p585
aS'evalTranstac-0806-open-offline-e35'
p586
aS'evalTranstac-0806-open-offline-e350'
p587
aS'evalTranstac-0806-open-offline-e351'
p588
aS'evalTranstac-0806-open-offline-e352'
p589
aS'evalTranstac-0806-open-offline-e353'
p590
aS'evalTranstac-0806-open-offline-e354'
p591
aS'evalTranstac-0806-open-offline-e356'
p592
aS'evalTranstac-0806-open-offline-e358'
p593
aS'evalTranstac-0806-open-offline-e359'
p594
aS'evalTranstac-0806-open-offline-e360'
p595
aS'evalTranstac-0806-open-offline-e361'
p596
aS'evalTranstac-0806-open-offline-e362'
p597
aS'evalTranstac-0806-open-offline-e363'
p598
aS'evalTranstac-0806-open-offline-e364'
p599
aS'evalTranstac-0806-open-offline-e365'
p600
aS'evalTranstac-0806-open-offline-e366'
p601
aS'evalTranstac-0806-open-offline-e367'
p602
aS'evalTranstac-0806-open-offline-e368'
p603
aS'evalTranstac-0806-open-offline-e37'
p604
aS'evalTranstac-0806-open-offline-e370'
p605
aS'evalTranstac-0806-open-offline-e372'
p606
aS'evalTranstac-0806-open-offline-e373'
p607
aS'evalTranstac-0806-open-offline-e374'
p608
aS'evalTranstac-0806-open-offline-e376'
p609
aS'evalTranstac-0806-open-offline-e378'
p610
aS'evalTranstac-0806-open-offline-e379'
p611
aS'evalTranstac-0806-open-offline-e38'
p612
aS'evalTranstac-0806-open-offline-e380'
p613
aS'evalTranstac-0806-open-offline-e381'
p614
aS'evalTranstac-0806-open-offline-e383'
p615
aS'evalTranstac-0806-open-offline-e386'
p616
aS'evalTranstac-0806-open-offline-e389'
p617
aS'evalTranstac-0806-open-offline-e390'
p618
aS'evalTranstac-0806-open-offline-e391'
p619
aS'evalTranstac-0806-open-offline-e392'
p620
aS'evalTranstac-0806-open-offline-e393'
p621
aS'evalTranstac-0806-open-offline-e395'
p622
aS'evalTranstac-0806-open-offline-e396'
p623
aS'evalTranstac-0806-open-offline-e397'
p624
aS'evalTranstac-0806-open-offline-e398'
p625
aS'evalTranstac-0806-open-offline-e399'
p626
aS'evalTranstac-0806-open-offline-e4'
p627
aS'evalTranstac-0806-open-offline-e400'
p628
aS'evalTranstac-0806-open-offline-e401'
p629
aS'evalTranstac-0806-open-offline-e402'
p630
aS'evalTranstac-0806-open-offline-e403'
p631
aS'evalTranstac-0806-open-offline-e404'
p632
aS'evalTranstac-0806-open-offline-e406'
p633
aS'evalTranstac-0806-open-offline-e407'
p634
aS'evalTranstac-0806-open-offline-e41'
p635
aS'evalTranstac-0806-open-offline-e410'
p636
aS'evalTranstac-0806-open-offline-e411'
p637
aS'evalTranstac-0806-open-offline-e413'
p638
aS'evalTranstac-0806-open-offline-e414'
p639
aS'evalTranstac-0806-open-offline-e415'
p640
aS'evalTranstac-0806-open-offline-e416'
p641
aS'evalTranstac-0806-open-offline-e417'
p642
aS'evalTranstac-0806-open-offline-e418'
p643
aS'evalTranstac-0806-open-offline-e420'
p644
aS'evalTranstac-0806-open-offline-e423'
p645
aS'evalTranstac-0806-open-offline-e425'
p646
aS'evalTranstac-0806-open-offline-e426'
p647
aS'evalTranstac-0806-open-offline-e427'
p648
aS'evalTranstac-0806-open-offline-e428'
p649
aS'evalTranstac-0806-open-offline-e429'
p650
aS'evalTranstac-0806-open-offline-e43'
p651
aS'evalTranstac-0806-open-offline-e431'
p652
aS'evalTranstac-0806-open-offline-e432'
p653
aS'evalTranstac-0806-open-offline-e433'
p654
aS'evalTranstac-0806-open-offline-e436'
p655
aS'evalTranstac-0806-open-offline-e437'
p656
aS'evalTranstac-0806-open-offline-e438'
p657
aS'evalTranstac-0806-open-offline-e44'
p658
aS'evalTranstac-0806-open-offline-e440'
p659
aS'evalTranstac-0806-open-offline-e441'
p660
aS'evalTranstac-0806-open-offline-e442'
p661
aS'evalTranstac-0806-open-offline-e444'
p662
aS'evalTranstac-0806-open-offline-e445'
p663
aS'evalTranstac-0806-open-offline-e446'
p664
aS'evalTranstac-0806-open-offline-e447'
p665
aS'evalTranstac-0806-open-offline-e448'
p666
aS'evalTranstac-0806-open-offline-e449'
p667
aS'evalTranstac-0806-open-offline-e45'
p668
aS'evalTranstac-0806-open-offline-e450'
p669
aS'evalTranstac-0806-open-offline-e451'
p670
aS'evalTranstac-0806-open-offline-e452'
p671
aS'evalTranstac-0806-open-offline-e453'
p672
aS'evalTranstac-0806-open-offline-e454'
p673
aS'evalTranstac-0806-open-offline-e455'
p674
aS'evalTranstac-0806-open-offline-e456'
p675
aS'evalTranstac-0806-open-offline-e457'
p676
aS'evalTranstac-0806-open-offline-e459'
p677
aS'evalTranstac-0806-open-offline-e46'
p678
aS'evalTranstac-0806-open-offline-e460'
p679
aS'evalTranstac-0806-open-offline-e461'
p680
aS'evalTranstac-0806-open-offline-e462'
p681
aS'evalTranstac-0806-open-offline-e463'
p682
aS'evalTranstac-0806-open-offline-e464'
p683
aS'evalTranstac-0806-open-offline-e465'
p684
aS'evalTranstac-0806-open-offline-e466'
p685
aS'evalTranstac-0806-open-offline-e467'
p686
aS'evalTranstac-0806-open-offline-e468'
p687
aS'evalTranstac-0806-open-offline-e469'
p688
aS'evalTranstac-0806-open-offline-e47'
p689
aS'evalTranstac-0806-open-offline-e470'
p690
aS'evalTranstac-0806-open-offline-e471'
p691
aS'evalTranstac-0806-open-offline-e473'
p692
aS'evalTranstac-0806-open-offline-e474'
p693
aS'evalTranstac-0806-open-offline-e475'
p694
aS'evalTranstac-0806-open-offline-e477'
p695
aS'evalTranstac-0806-open-offline-e478'
p696
aS'evalTranstac-0806-open-offline-e479'
p697
aS'evalTranstac-0806-open-offline-e48'
p698
aS'evalTranstac-0806-open-offline-e480'
p699
aS'evalTranstac-0806-open-offline-e481'
p700
aS'evalTranstac-0806-open-offline-e482'
p701
aS'evalTranstac-0806-open-offline-e489'
p702
aS'evalTranstac-0806-open-offline-e49'
p703
aS'evalTranstac-0806-open-offline-e490'
p704
aS'evalTranstac-0806-open-offline-e491'
p705
aS'evalTranstac-0806-open-offline-e494'
p706
aS'evalTranstac-0806-open-offline-e495'
p707
aS'evalTranstac-0806-open-offline-e496'
p708
aS'evalTranstac-0806-open-offline-e497'
p709
aS'evalTranstac-0806-open-offline-e498'
p710
aS'evalTranstac-0806-open-offline-e499'
p711
aS'evalTranstac-0806-open-offline-e50'
p712
aS'evalTranstac-0806-open-offline-e500'
p713
aS'evalTranstac-0806-open-offline-e501'
p714
aS'evalTranstac-0806-open-offline-e502'
p715
aS'evalTranstac-0806-open-offline-e503'
p716
aS'evalTranstac-0806-open-offline-e504'
p717
aS'evalTranstac-0806-open-offline-e505'
p718
aS'evalTranstac-0806-open-offline-e506'
p719
aS'evalTranstac-0806-open-offline-e507'
p720
aS'evalTranstac-0806-open-offline-e508'
p721
aS'evalTranstac-0806-open-offline-e509'
p722
aS'evalTranstac-0806-open-offline-e510'
p723
aS'evalTranstac-0806-open-offline-e511'
p724
aS'evalTranstac-0806-open-offline-e512'
p725
aS'evalTranstac-0806-open-offline-e514'
p726
aS'evalTranstac-0806-open-offline-e515'
p727
aS'evalTranstac-0806-open-offline-e516'
p728
aS'evalTranstac-0806-open-offline-e517'
p729
aS'evalTranstac-0806-open-offline-e518'
p730
aS'evalTranstac-0806-open-offline-e519'
p731
aS'evalTranstac-0806-open-offline-e52'
p732
aS'evalTranstac-0806-open-offline-e520'
p733
aS'evalTranstac-0806-open-offline-e521'
p734
aS'evalTranstac-0806-open-offline-e524'
p735
aS'evalTranstac-0806-open-offline-e526'
p736
aS'evalTranstac-0806-open-offline-e527'
p737
aS'evalTranstac-0806-open-offline-e528'
p738
aS'evalTranstac-0806-open-offline-e529'
p739
aS'evalTranstac-0806-open-offline-e53'
p740
aS'evalTranstac-0806-open-offline-e532'
p741
aS'evalTranstac-0806-open-offline-e533'
p742
aS'evalTranstac-0806-open-offline-e534'
p743
aS'evalTranstac-0806-open-offline-e536'
p744
aS'evalTranstac-0806-open-offline-e538'
p745
aS'evalTranstac-0806-open-offline-e539'
p746
aS'evalTranstac-0806-open-offline-e54'
p747
aS'evalTranstac-0806-open-offline-e540'
p748
aS'evalTranstac-0806-open-offline-e541'
p749
aS'evalTranstac-0806-open-offline-e542'
p750
aS'evalTranstac-0806-open-offline-e544'
p751
aS'evalTranstac-0806-open-offline-e545'
p752
aS'evalTranstac-0806-open-offline-e546'
p753
aS'evalTranstac-0806-open-offline-e547'
p754
aS'evalTranstac-0806-open-offline-e548'
p755
aS'evalTranstac-0806-open-offline-e549'
p756
aS'evalTranstac-0806-open-offline-e55'
p757
aS'evalTranstac-0806-open-offline-e550'
p758
aS'evalTranstac-0806-open-offline-e551'
p759
aS'evalTranstac-0806-open-offline-e552'
p760
aS'evalTranstac-0806-open-offline-e553'
p761
aS'evalTranstac-0806-open-offline-e554'
p762
aS'evalTranstac-0806-open-offline-e557'
p763
aS'evalTranstac-0806-open-offline-e558'
p764
aS'evalTranstac-0806-open-offline-e559'
p765
aS'evalTranstac-0806-open-offline-e56'
p766
aS'evalTranstac-0806-open-offline-e561'
p767
aS'evalTranstac-0806-open-offline-e562'
p768
aS'evalTranstac-0806-open-offline-e563'
p769
aS'evalTranstac-0806-open-offline-e564'
p770
aS'evalTranstac-0806-open-offline-e565'
p771
aS'evalTranstac-0806-open-offline-e566'
p772
aS'evalTranstac-0806-open-offline-e567'
p773
aS'evalTranstac-0806-open-offline-e568'
p774
aS'evalTranstac-0806-open-offline-e569'
p775
aS'evalTranstac-0806-open-offline-e57'
p776
aS'evalTranstac-0806-open-offline-e570'
p777
aS'evalTranstac-0806-open-offline-e571'
p778
aS'evalTranstac-0806-open-offline-e572'
p779
aS'evalTranstac-0806-open-offline-e573'
p780
aS'evalTranstac-0806-open-offline-e574'
p781
aS'evalTranstac-0806-open-offline-e575'
p782
aS'evalTranstac-0806-open-offline-e576'
p783
aS'evalTranstac-0806-open-offline-e577'
p784
aS'evalTranstac-0806-open-offline-e578'
p785
aS'evalTranstac-0806-open-offline-e579'
p786
aS'evalTranstac-0806-open-offline-e58'
p787
aS'evalTranstac-0806-open-offline-e580'
p788
aS'evalTranstac-0806-open-offline-e581'
p789
aS'evalTranstac-0806-open-offline-e582'
p790
aS'evalTranstac-0806-open-offline-e583'
p791
aS'evalTranstac-0806-open-offline-e584'
p792
aS'evalTranstac-0806-open-offline-e585'
p793
aS'evalTranstac-0806-open-offline-e586'
p794
aS'evalTranstac-0806-open-offline-e587'
p795
aS'evalTranstac-0806-open-offline-e588'
p796
aS'evalTranstac-0806-open-offline-e589'
p797
aS'evalTranstac-0806-open-offline-e59'
p798
aS'evalTranstac-0806-open-offline-e590'
p799
aS'evalTranstac-0806-open-offline-e591'
p800
aS'evalTranstac-0806-open-offline-e592'
p801
aS'evalTranstac-0806-open-offline-e593'
p802
aS'evalTranstac-0806-open-offline-e594'
p803
aS'evalTranstac-0806-open-offline-e595'
p804
aS'evalTranstac-0806-open-offline-e598'
p805
aS'evalTranstac-0806-open-offline-e599'
p806
aS'evalTranstac-0806-open-offline-e6'
p807
aS'evalTranstac-0806-open-offline-e60'
p808
aS'evalTranstac-0806-open-offline-e600'
p809
aS'evalTranstac-0806-open-offline-e606'
p810
aS'evalTranstac-0806-open-offline-e608'
p811
aS'evalTranstac-0806-open-offline-e609'
p812
aS'evalTranstac-0806-open-offline-e611'
p813
aS'evalTranstac-0806-open-offline-e615'
p814
aS'evalTranstac-0806-open-offline-e616'
p815
aS'evalTranstac-0806-open-offline-e617'
p816
aS'evalTranstac-0806-open-offline-e618'
p817
aS'evalTranstac-0806-open-offline-e619'
p818
aS'evalTranstac-0806-open-offline-e62'
p819
aS'evalTranstac-0806-open-offline-e621'
p820
aS'evalTranstac-0806-open-offline-e622'
p821
aS'evalTranstac-0806-open-offline-e623'
p822
aS'evalTranstac-0806-open-offline-e624'
p823
aS'evalTranstac-0806-open-offline-e625'
p824
aS'evalTranstac-0806-open-offline-e627'
p825
aS'evalTranstac-0806-open-offline-e629'
p826
aS'evalTranstac-0806-open-offline-e630'
p827
aS'evalTranstac-0806-open-offline-e633'
p828
aS'evalTranstac-0806-open-offline-e636'
p829
aS'evalTranstac-0806-open-offline-e637'
p830
aS'evalTranstac-0806-open-offline-e638'
p831
aS'evalTranstac-0806-open-offline-e639'
p832
aS'evalTranstac-0806-open-offline-e64'
p833
aS'evalTranstac-0806-open-offline-e640'
p834
aS'evalTranstac-0806-open-offline-e643'
p835
aS'evalTranstac-0806-open-offline-e645'
p836
aS'evalTranstac-0806-open-offline-e647'
p837
aS'evalTranstac-0806-open-offline-e648'
p838
aS'evalTranstac-0806-open-offline-e649'
p839
aS'evalTranstac-0806-open-offline-e65'
p840
aS'evalTranstac-0806-open-offline-e650'
p841
aS'evalTranstac-0806-open-offline-e651'
p842
aS'evalTranstac-0806-open-offline-e652'
p843
aS'evalTranstac-0806-open-offline-e653'
p844
aS'evalTranstac-0806-open-offline-e654'
p845
aS'evalTranstac-0806-open-offline-e655'
p846
aS'evalTranstac-0806-open-offline-e656'
p847
aS'evalTranstac-0806-open-offline-e66'
p848
aS'evalTranstac-0806-open-offline-e67'
p849
aS'evalTranstac-0806-open-offline-e68'
p850
aS'evalTranstac-0806-open-offline-e69'
p851
aS'evalTranstac-0806-open-offline-e70'
p852
aS'evalTranstac-0806-open-offline-e71'
p853
aS'evalTranstac-0806-open-offline-e72'
p854
aS'evalTranstac-0806-open-offline-e73'
p855
aS'evalTranstac-0806-open-offline-e74'
p856
aS'evalTranstac-0806-open-offline-e75'
p857
aS'evalTranstac-0806-open-offline-e76'
p858
aS'evalTranstac-0806-open-offline-e77'
p859
aS'evalTranstac-0806-open-offline-e78'
p860
aS'evalTranstac-0806-open-offline-e79'
p861
aS'evalTranstac-0806-open-offline-e8'
p862
aS'evalTranstac-0806-open-offline-e80'
p863
aS'evalTranstac-0806-open-offline-e81'
p864
aS'evalTranstac-0806-open-offline-e82'
p865
aS'evalTranstac-0806-open-offline-e83'
p866
aS'evalTranstac-0806-open-offline-e84'
p867
aS'evalTranstac-0806-open-offline-e86'
p868
aS'evalTranstac-0806-open-offline-e87'
p869
aS'evalTranstac-0806-open-offline-e88'
p870
aS'evalTranstac-0806-open-offline-e91'
p871
aS'evalTranstac-0806-open-offline-e93'
p872
aS'evalTranstac-0806-open-offline-e94'
p873
aS'evalTranstac-0806-open-offline-e95'
p874
aS'evalTranstac-0806-open-offline-e96'
p875
aS'evalTranstac-0806-open-offline-e98'
p876
aS'English^A13_01_003_0002'
p877
aS'English^A13_01_009_0003'
p878
aS'English^A13_01_011_0004'
p879
aS'English^A13_01_023_0005'
p880
aS'English^A13_01_029_0006'
p881
aS'English^A13_01_054_0008'
p882
aS'English^A13_01_063_0009'
p883
aS'English^A13_01_065_0010'
p884
aS'English^A13_01_067_0011'
p885
aS'English^A13_01_078_0012'
p886
aS'English^A13_01_080_0013'
p887
aS'English^A13_01_089_0014'
p888
aS'English^A13_01_117_0019'
p889
aS'English^A13_01_119_0020'
p890
aS'English^A13_01_137_0023'
p891
aS'English^A13_01_139_0024'
p892
aS'English^A13_01_146_0025'
p893
aS'English^A13_01_156_0026'
p894
aS'English^A13_01_163_0027'
p895
aS'English^A13_01_170_0028'
p896
aS'English^A13_01_175_0029'
p897
aS'English^A13_01_195_0032'
p898
aS'English^A13_01_205_0033'
p899
aS'English^A13_01_207_0034'
p900
aS'English^A13_01_215_0035'
p901
aS'English^A13_01_224_0036'
p902
aS'English^A13_01_226_0037'
p903
aS'English^A13_01_234_0038'
p904
aS'English^A13_01_244_0039'
p905
aS'English^A13_01_246_0040'
p906
aS'English^A13_01_256_0041'
p907
aS'English^A13_01_264_0042'
p908
aS'English^A13_01_266_0043'
p909
aS'English^A13_01_276_0044'
p910
aS'English^A13_01_278_0045'
p911
aS'English^A13_01_280_0046'
p912
aS'English^A13_01_301_0047'
p913
aS'English^A13_01_312_0048'
p914
aS'English^A13_01_314_0049'
p915
aS'English^A13_01_331_0050'
p916
aS'English^A13_01_342_0051'
p917
aS'English^A13_01_352_0052'
p918
aS'English^A13_01_363_0053'
p919
aS'English^A13_01_373_0054'
p920
aS'English^A13_01_381_0055'
p921
aS'English^A13_01_394_0056'
p922
aS'English^A13_01_404_0057'
p923
aS'English^A13_01_412_0058'
p924
aS'English^A13_01_420_0059'
p925
aS'English^A13_01_426_0060'
p926
aS'English^A13_01_442_0062'
p927
aS'English^A13_01_444_0063'
p928
aS'English^A13_01_455_0064'
p929
aS'English^A13_01_464_0065'
p930
aS'English^A13_01_466_0066'
p931
aS'English^A13_01_477_0067'
p932
aS'English^A13_01_479_0068'
p933
aS'English^A13_01_489_0069'
p934
aS'English^A13_01_502_0070'
p935
aS'English^A13_01_511_0071'
p936
aS'English^A13_01_513_0072'
p937
aS'English^A13_01_525_0073'
p938
aS'English^A13_01_545_0074'
p939
aS'English^A13_01_558_0075'
p940
aS'English^A13_01_567_0076'
p941
aS'English^A13_01_594_0077'
p942
aS'English^B12_02_025_0080'
p943
aS'English^B12_02_027_0081'
p944
aS'English^B12_02_032_0082'
p945
aS'English^B12_02_042_0084'
p946
aS'English^B12_02_048_0085'
p947
aS'English^B12_02_065_0087'
p948
aS'English^B12_02_074_0089'
p949
aS'English^B12_02_084_0091'
p950
aS'English^B12_02_111_0093'
p951
aS'English^B12_02_115_0094'
p952
aS'English^B12_02_153_0097'
p953
aS'English^B12_02_203_0100'
p954
aS'English^B12_02_236_0103'
p955
aS'English^B12_02_275_0106'
p956
aS'English^B12_02_297_0110'
p957
aS'English^B12_02_301_0111'
p958
aS'English^B12_02_315_0113'
p959
aS'English^B12_02_319_0114'
p960
aS'English^B12_02_333_0116'
p961
aS'English^B12_02_337_0117'
p962
aS'English^B12_02_345_0118'
p963
aS'English^B12_02_349_0119'
p964
aS'English^B12_02_357_0120'
p965
aS'English^B12_02_361_0121'
p966
aS'English^B12_02_369_0122'
p967
aS'English^B12_02_379_0124'
p968
aS'English^B12_02_381_0125'
p969
aS'English^B12_02_393_0127'
p970
aS'English^B12_02_407_0130'
p971
aS'English^B42_03_004_0131'
p972
aS'English^B42_03_015_0133'
p973
aS'English^B42_03_017_0134'
p974
aS'English^B42_03_024_0135'
p975
aS'English^B42_03_036_0137'
p976
aS'English^B42_03_044_0138'
p977
aS'English^B42_03_050_0139'
p978
aS'English^B42_03_092_0145'
p979
aS'English^B42_03_119_0147'
p980
aS'English^B42_03_134_0150'
p981
aS'English^B42_03_138_0151'
p982
aS'English^B42_03_144_0152'
p983
aS'English^B42_03_158_0153'
p984
aS'English^B42_03_160_0154'
p985
aS'English^B42_03_179_0156'
p986
aS'English^B42_03_205_0157'
p987
aS'English^B42_03_207_0158'
p988
aS'English^B42_03_220_0159'
p989
aS'English^B42_03_230_0160'
p990
aS'English^B42_03_241_0161'
p991
aS'English^B42_03_275_0165'
p992
aS'English^B42_03_279_0167'
p993
aS'English^B42_03_297_0169'
p994
aS'English^C13_04_004_0170'
p995
aS'English^C13_04_015_0173'
p996
aS'English^C13_04_030_0175'
p997
aS'English^C13_04_055_0179'
p998
aS'English^C13_04_078_0182'
p999
aS'English^C13_04_101_0185'
p1000
aS'English^C13_04_115_0187'
p1001
aS'English^C13_04_135_0189'
p1002
aS'English^C13_04_144_0190'
p1003
aS'English^C13_04_157_0192'
p1004
aS'English^C13_04_163_0193'
p1005
aS'English^C13_04_174_0194'
p1006
aS'English^C13_04_229_0202'
p1007
aS'English^C13_04_247_0205'
p1008
aS'English^C13_04_258_0206'
p1009
aS'English^C13_04_268_0207'
p1010
aS'English^C42_05_004_0209'
p1011
aS'English^C42_05_012_0211'
p1012
aS'English^C42_05_014_0212'
p1013
aS'English^C42_05_023_0213'
p1014
aS'English^C42_05_045_0216'
p1015
aS'English^C42_05_047_0217'
p1016
aS'English^C42_05_049_0218'
p1017
aS'English^C42_05_052_0219'
p1018
aS'English^C42_05_059_0221'
p1019
aS'English^C42_05_062_0222'
p1020
aS'English^C42_05_087_0225'
p1021
aS'English^C42_05_089_0226'
p1022
aS'English^C42_05_103_0228'
p1023
aS'English^C42_05_105_0229'
p1024
aS'English^C42_05_125_0230'
p1025
aS'English^C42_05_135_0231'
p1026
aS'English^C42_05_143_0232'
p1027
aS'English^C42_05_146_0233'
p1028
aS'English^C42_05_156_0234'
p1029
aS'English^C42_05_167_0236'
p1030
aS'English^C42_05_171_0237'
p1031
aS'English^C42_05_182_0238'
p1032
aS'English^C42_05_193_0239'
p1033
aS'English^C42_05_195_0240'
p1034
aS'English^C42_05_203_0241'
p1035
aS'English^C42_05_212_0243'
p1036
aS'English^C42_05_228_0244'
p1037
aS'English^C42_05_245_0247'
p1038
aS'English^C42_05_257_0249'
p1039
aS'English^C42_05_270_0251'
p1040
aS'English^C42_05_282_0252'
p1041
aS'English^C42_05_284_0253'
p1042
aS'English^C42_05_295_0254'
p1043
aS'English^C42_05_297_0255'
p1044
aS'English^C42_05_309_0256'
p1045
aS'English^C42_05_335_0259'
p1046
aS'English^D11_06_001_0260'
p1047
aS'English^D11_06_003_0261'
p1048
aS'English^D11_06_005_0262'
p1049
aS'English^D11_06_022_0264'
p1050
aS'English^D11_06_033_0265'
p1051
aS'English^D11_06_035_0266'
p1052
aS'English^D11_06_039_0267'
p1053
aS'English^D11_06_057_0269'
p1054
aS'English^D11_06_068_0271'
p1055
aS'English^D11_06_076_0272'
p1056
aS'English^D11_06_093_0273'
p1057
aS'English^D11_06_102_0274'
p1058
aS'English^D11_06_116_0275'
p1059
aS'English^D11_06_124_0276'
p1060
aS'English^D11_06_126_0277'
p1061
aS'English^D11_06_152_0279'
p1062
aS'English^D11_06_154_0280'
p1063
aS'English^D11_06_171_0281'
p1064
aS'English^D11_06_199_0283'
p1065
aS'English^D11_06_210_0285'
p1066
aS'English^D11_06_225_0286'
p1067
aS'English^D11_06_235_0287'
p1068
aS'English^D11_06_273_0289'
p1069
aS'English^D11_06_282_0290'
p1070
aS'English^D11_06_295_0291'
p1071
aS'English^D11_06_304_0292'
p1072
aS'English^D11_06_319_0293'
p1073
aS'English^D11_06_327_0295'
p1074
aS'English^D11_06_339_0296'
p1075
aS'English^D11_06_341_0297'
p1076
aS'English^D11_06_352_0298'
p1077
aS'English^D11_06_354_0299'
p1078
aS'English^D11_06_356_0300'
p1079
aS'English^D11_06_379_0303'
p1080
aS'English^D11_06_381_0304'
p1081
aS'English^D11_06_385_0305'
p1082
aS'English^D11_06_397_0306'
p1083
aS'English^D21_07_009_0308'
p1084
aS'English^D21_07_022_0309'
p1085
aS'English^D21_07_041_0311'
p1086
aS'English^D21_07_052_0312'
p1087
aS'English^D21_07_054_0313'
p1088
aS'English^D21_07_075_0315'
p1089
aS'English^D21_07_084_0316'
p1090
aS'English^D21_07_086_0317'
p1091
aS'English^D21_07_118_0318'
p1092
aS'English^D21_07_120_0319'
p1093
aS'English^D21_07_152_0320'
p1094
aS'English^D21_07_154_0321'
p1095
aS'English^D21_07_156_0322'
p1096
aS'English^D21_07_171_0323'
p1097
aS'English^D21_07_173_0324'
p1098
aS'English^D21_07_181_0326'
p1099
aS'English^D21_07_199_0327'
p1100
aS'English^D21_07_201_0328'
p1101
aS'English^D21_07_220_0329'
p1102
aS'English^D21_07_224_0331'
p1103
aS'English^D21_07_249_0332'
p1104
aS'English^D21_07_281_0333'
p1105
aS'English^D21_07_285_0334'
p1106
aS'English^D21_07_328_0335'
p1107
aS'English^D21_07_330_0336'
p1108
aS'English^D21_07_353_0337'
p1109
aS'English^D21_07_366_0338'
p1110
aS'English^D21_07_368_0339'
p1111
aS'English^D21_07_370_0340'
p1112
aS'English^D21_07_389_0341'
p1113
aS'English^D21_07_405_0342'
p1114
aS'English^D21_07_407_0343'
p1115
aS'English^D21_07_421_0344'
p1116
aS'English^D21_07_429_0345'
p1117
aS'English^D21_07_443_0347'
p1118
aS'English^D21_07_451_0348'
p1119
aS'English^E21_08_003_0349'
p1120
aS'English^E21_08_009_0350'
p1121
aS'English^E21_08_023_0352'
p1122
aS'English^E21_08_032_0353'
p1123
aS'English^E21_08_034_0354'
p1124
aS'English^E21_08_036_0355'
p1125
aS'English^E21_08_044_0356'
p1126
aS'English^E21_08_055_0357'
p1127
aS'English^E21_08_062_0358'
p1128
aS'English^E21_08_068_0359'
p1129
aS'English^E21_08_079_0361'
p1130
aS'English^E21_08_081_0362'
p1131
aS'English^E21_08_083_0363'
p1132
aS'English^E21_08_092_0364'
p1133
aS'English^E21_08_094_0365'
p1134
aS'English^E21_08_101_0366'
p1135
aS'English^E21_08_103_0367'
p1136
aS'English^E21_08_114_0368'
p1137
aS'English^E21_08_122_0369'
p1138
aS'English^E21_08_142_0371'
p1139
aS'English^E21_08_158_0372'
p1140
aS'English^E21_08_160_0373'
p1141
aS'English^E21_08_177_0374'
p1142
aS'English^E21_08_189_0375'
p1143
aS'English^E21_08_193_0376'
p1144
aS'English^E21_08_195_0377'
p1145
aS'English^E21_08_199_0379'
p1146
aS'English^E21_08_201_0380'
p1147
aS'English^E21_08_214_0381'
p1148
aS'English^E21_08_218_0382'
p1149
aS'English^E21_08_225_0383'
p1150
aS'English^E21_08_227_0384'
p1151
aS'English^E21_08_236_0385'
p1152
aS'English^E21_08_244_0386'
p1153
aS'English^E21_08_246_0387'
p1154
aS'English^E21_08_257_0388'
p1155
aS'English^E21_08_259_0389'
p1156
aS'English^E21_08_266_0390'
p1157
aS'English^E21_08_268_0391'
p1158
aS'English^E21_08_277_0392'
p1159
aS'English^E21_08_279_0393'
p1160
aS'English^E21_08_288_0394'
p1161
aS'English^E21_08_290_0395'
p1162
aS'English^E21_08_299_0397'
p1163
aS'English^E21_08_301_0398'
p1164
aS'English^E21_08_308_0399'
p1165
aS'English^E41_09_004_0400'
p1166
aS'English^E41_09_015_0402'
p1167
aS'English^E41_09_017_0403'
p1168
aS'English^E41_09_038_0404'
p1169
aS'English^E41_09_042_0405'
p1170
aS'English^E41_09_048_0407'
p1171
aS'English^E41_09_055_0408'
p1172
aS'English^E41_09_059_0409'
p1173
aS'English^E41_09_070_0410'
p1174
aS'English^E41_09_079_0411'
p1175
aS'English^E41_09_084_0412'
p1176
aS'English^E41_09_087_0413'
p1177
aS'English^E41_09_100_0414'
p1178
aS'English^E41_09_109_0415'
p1179
aS'English^E41_09_111_0416'
p1180
aS'English^E41_09_116_0417'
p1181
aS'English^E41_09_118_0418'
p1182
aS'English^E41_09_142_0419'
p1183
aS'English^E41_09_146_0420'
p1184
aS'English^E41_09_148_0421'
p1185
aS'English^E41_09_160_0422'
p1186
aS'English^E41_09_162_0423'
p1187
aS'English^E41_09_167_0424'
p1188
aS'English^E41_09_174_0425'
p1189
aS'English^E41_09_184_0426'
p1190
aS'English^E41_09_186_0427'
p1191
aS'English^E41_09_195_0428'
p1192
aS'English^E41_09_201_0429'
p1193
aS'English^E41_09_207_0430'
p1194
aS'English^E41_09_209_0431'
p1195
aS'English^E41_09_216_0432'
p1196
aS'English^E41_09_218_0433'
p1197
aS'English^E41_09_233_0435'
p1198
aS'English^E41_09_235_0436'
p1199
aS'English^E41_09_237_0437'
p1200
aS'English^E41_09_247_0438'
p1201
aS'English^E41_09_249_0439'
p1202
aS'English^E41_09_251_0440'
p1203
aS'English^E41_09_263_0441'
p1204
aS'English^E41_09_265_0442'
p1205
aS'English^E41_09_287_0443'
p1206
aS'English^E41_09_292_0444'
p1207
aS'English^E41_09_294_0445'
p1208
aS'English^E41_09_296_0446'
p1209
aS'English^E41_09_303_0448'
p1210
aS'English^E41_09_305_0449'
p1211
aS'English^E41_09_324_0451'
p1212
aS'English^E41_09_356_0452'
p1213
aS'English^E41_09_358_0453'
p1214
aS'English^E41_09_360_0454'
p1215
aS'English^E41_09_376_0455'
p1216
aS'English^F11_10_005_0456'
p1217
aS'English^F11_10_015_0457'
p1218
aS'English^F11_10_017_0458'
p1219
aS'English^F11_10_036_0459'
p1220
aS'English^F11_10_045_0460'
p1221
aS'English^F11_10_059_0461'
p1222
aS'English^F11_10_068_0462'
p1223
aS'English^F11_10_070_0463'
p1224
aS'English^F11_10_080_0464'
p1225
aS'English^F11_10_082_0465'
p1226
aS'English^F11_10_084_0466'
p1227
aS'English^F11_10_097_0468'
p1228
aS'English^F11_10_099_0469'
p1229
aS'English^F11_10_114_0470'
p1230
aS'English^F11_10_116_0471'
p1231
aS'English^F11_10_126_0472'
p1232
aS'English^F11_10_128_0473'
p1233
aS'English^F11_10_137_0474'
p1234
aS'English^F11_10_139_0475'
p1235
aS'English^F11_10_141_0476'
p1236
aS'English^F11_10_170_0477'
p1237
aS'English^F11_10_172_0478'
p1238
aS'English^F11_10_210_0480'
p1239
aS'English^F11_10_212_0481'
p1240
aS'English^F11_10_214_0482'
p1241
aS'English^F11_10_216_0483'
p1242
aS'English^F11_10_227_0484'
p1243
aS'English^F11_10_231_0485'
p1244
aS'English^F11_10_262_0486'
p1245
aS'English^F11_10_264_0487'
p1246
aS'English^F11_10_266_0488'
p1247
aS'English^F11_10_276_0489'
p1248
aS'English^F11_10_278_0490'
p1249
aS'English^F11_10_280_0491'
p1250
aS'English^F11_10_282_0492'
p1251
aS'English^F11_10_284_0493'
p1252
aS'English^F32_11_001_0494'
p1253
aS'English^F32_11_006_0495'
p1254
aS'English^F32_11_020_0496'
p1255
aS'English^F32_11_035_0498'
p1256
aS'English^F32_11_051_0499'
p1257
aS'English^F32_11_064_0500'
p1258
aS'English^F32_11_066_0501'
p1259
aS'English^F32_11_075_0502'
p1260
aS'English^F32_11_077_0503'
p1261
aS'English^F32_11_087_0504'
p1262
aS'English^F32_11_089_0505'
p1263
aS'English^F32_11_115_0507'
p1264
aS'English^F32_11_135_0509'
p1265
aS'English^F32_11_148_0511'
p1266
aS'English^F32_11_150_0512'
p1267
aS'English^F32_11_167_0513'
p1268
aS'English^F32_11_169_0514'
p1269
aS'English^F32_11_171_0515'
p1270
aS'English^F32_11_186_0516'
p1271
aS'English^F32_11_196_0518'
p1272
aS'English^F32_11_198_0519'
p1273
aS'English^F32_11_210_0520'
p1274
aS'English^F32_11_215_0521'
p1275
aS'English^F32_11_223_0522'
p1276
aS'English^F32_11_226_0523'
p1277
aS'English^F32_11_234_0524'
p1278
aS'English^F32_11_245_0525'
p1279
aS'English^F32_11_247_0526'
p1280
aS'English^F32_11_249_0527'
p1281
aS'English^F32_11_265_0528'
p1282
aS'English^F32_11_269_0529'
p1283
aS'English^F32_11_290_0531'
p1284
aS'English^F32_11_294_0532'
p1285
aS'English^F32_11_299_0533'
p1286
aS'English^F32_11_307_0534'
p1287
aS'English^F32_11_314_0535'
p1288
aS'English^F32_11_328_0536'
p1289
aS'English^F32_11_330_0537'
p1290
aS'English^F32_11_338_0538'
p1291
aS'English^F32_11_343_0539'
p1292
aS'English^F32_11_351_0540'
p1293
aS'English^F32_11_353_0541'
p1294
aS'English^F32_11_359_0542'
p1295
aS'English^F32_11_361_0543'
p1296
aS'English^F32_11_376_0545'
p1297
aS'English^F32_11_380_0546'
p1298
aS'English^F32_11_382_0547'
p1299
aS'English^F32_11_388_0548'
p1300
aS'English^F32_11_390_0549'
p1301
aS'English^F32_11_394_0550'
p1302
aS'English^F32_11_398_0551'
p1303
aS'English^F32_11_413_0552'
p1304
aS'English^F32_11_415_0553'
p1305
aS'English^F32_11_427_0554'
p1306
aS'English^F32_11_430_0555'
p1307
aS'English^F32_11_435_0556'
p1308
aS'English^F32_11_446_0558'
p1309
aS'English^F32_11_464_0561'
p1310
aS'English^F32_11_466_0562'
p1311
aS'IraqComm-2007-07-17T06-32-27-031-012'
p1312
aS'IraqComm-2007-07-17T06-32-27-031-016'
p1313
aS'IraqComm-2007-07-17T06-32-27-031-018'
p1314
aS'IraqComm-2007-07-17T06-32-27-031-022'
p1315
aS'IraqComm-2007-07-17T06-32-27-031-059'
p1316
aS'IraqComm-2007-07-17T06-32-27-031-063'
p1317
aS'IraqComm-2007-07-17T06-32-27-031-075'
p1318
aS'IraqComm-2007-07-17T06-50-53-531-010'
p1319
aS'IraqComm-2007-07-17T06-50-53-531-019'
p1320
aS'IraqComm-2007-07-17T06-50-53-531-035'
p1321
aS'IraqComm-2007-07-17T06-50-53-531-076'
p1322
aS'IraqComm-2007-07-17T06-50-53-531-078'
p1323
aS'IraqComm-2007-07-17T06-50-53-531-080'
p1324
aS'IraqComm-2007-07-17T07-07-42-500-042'
p1325
aS'IraqComm-2007-07-17T07-07-42-500-044'
p1326
aS'IraqComm-2007-07-17T07-07-42-500-054'
p1327
aS'IraqComm-2007-07-17T07-07-42-500-081'
p1328
aS'IraqComm-2007-07-17T07-25-16-765-018'
p1329
aS'IraqComm-2007-07-17T07-25-16-765-026'
p1330
aS'IraqComm-2007-07-17T07-25-16-765-028'
p1331
aS'IraqComm-2007-07-17T07-25-16-765-040'
p1332
aS'IraqComm-2007-07-17T07-25-16-765-056'
p1333
aS'IraqComm-2007-07-17T07-25-16-765-068'
p1334
aS'IraqComm-2007-07-17T07-25-16-765-070'
p1335
aS'IraqComm-2007-07-17T07-42-28-703-010'
p1336
aS'IraqComm-2007-07-17T07-42-28-703-073'
p1337
aS'IraqComm-2007-07-17T07-59-11-125-006'
p1338
aS'IraqComm-2007-07-17T07-59-11-125-035'
p1339
aS'IraqComm-2007-07-17T07-59-11-125-070'
p1340
aS'IraqComm-2007-07-17T07-59-11-125-073'
p1341
aS'IraqComm-2007-07-17T07-59-11-125-075'
p1342
aS'IraqComm-2007-07-17T08-15-31-953-004'
p1343
aS'IraqComm-2007-07-17T08-15-31-953-027'
p1344
aS'IraqComm-2007-07-17T08-15-31-953-045'
p1345
aS'IraqComm-2007-07-17T08-15-31-953-047'
p1346
aS'IraqComm-2007-07-17T08-15-31-953-049'
p1347
aS'IraqComm-2007-07-17T08-15-31-953-059'
p1348
aS'IraqComm-2007-07-17T08-37-41-531-013'
p1349
aS'IraqComm-2007-07-17T08-37-41-531-027'
p1350
aS'IraqComm-2007-07-17T08-37-41-531-033'
p1351
aS'IraqComm-2007-07-17T08-37-41-531-045'
p1352
aS'IraqComm-2007-07-17T09-56-04-765-015'
p1353
aS'IraqComm-2007-07-17T09-56-04-765-017'
p1354
aS'IraqComm-2007-07-17T09-56-04-765-025'
p1355
aS'IraqComm-2007-07-17T09-56-04-765-036'
p1356
aS'IraqComm-2007-07-17T09-56-04-765-052'
p1357
aS'IraqComm-2007-07-17T09-56-04-765-054'
p1358
aS'IraqComm-2007-07-17T09-56-04-765-066'
p1359
aS'IraqComm-2007-07-17T09-56-04-765-076'
p1360
aS'IraqComm-2007-07-17T10-16-14-843-003'
p1361
aS'IraqComm-2007-07-17T10-16-14-843-006'
p1362
aS'IraqComm-2007-07-17T10-16-14-843-013'
p1363
aS'IraqComm-2007-07-17T10-16-14-843-055'
p1364
aS'IraqComm-2007-07-18T06-46-36-000-019'
p1365
aS'IraqComm-2007-07-18T06-46-36-000-026'
p1366
aS'IraqComm-2007-07-18T06-46-36-000-028'
p1367
aS'IraqComm-2007-07-18T06-46-36-000-042'
p1368
aS'IraqComm-2007-07-18T06-46-36-000-044'
p1369
aS'IraqComm-2007-07-18T06-46-36-000-060'
p1370
aS'IraqComm-2007-07-18T06-46-36-000-062'
p1371
aS'IraqComm-2007-07-18T06-46-36-000-063'
p1372
aS'IraqComm-2007-07-18T06-46-36-000-065'
p1373
aS'IraqComm-2007-07-18T06-46-36-000-067'
p1374
aS'IraqComm-2007-07-18T07-06-12-812-019'
p1375
aS'IraqComm-2007-07-18T07-06-12-812-040'
p1376
aS'IraqComm-2007-07-18T07-06-12-812-045'
p1377
aS'IraqComm-2007-07-18T07-06-12-812-047'
p1378
aS'IraqComm-2007-07-18T07-06-12-812-049'
p1379
aS'IraqComm-2007-07-18T07-06-12-812-051'
p1380
aS'IraqComm-2007-07-18T07-06-12-812-053'
p1381
aS'IraqComm-2007-07-18T07-06-12-812-056'
p1382
aS'IraqComm-2007-07-18T07-06-12-812-058'
p1383
aS'IraqComm-2007-07-18T07-24-30-859-008'
p1384
aS'IraqComm-2007-07-18T07-24-30-859-046'
p1385
aS'IraqComm-2007-07-18T07-24-30-859-048'
p1386
aS'IraqComm-2007-07-18T07-24-30-859-050'
p1387
aS'IraqComm-2007-07-18T07-24-30-859-051'
p1388
aS'IraqComm-2007-07-18T07-24-30-859-053'
p1389
aS'IraqComm-2007-07-18T07-24-30-859-055'
p1390
aS'IraqComm-2007-07-18T07-24-30-859-056'
p1391
aS'IraqComm-2007-07-18T07-24-30-859-060'
p1392
aS'IraqComm-2007-07-18T07-24-30-859-062'
p1393
aS'IraqComm-2007-07-18T07-42-59-421-015'
p1394
aS'IraqComm-2007-07-18T07-42-59-421-031'
p1395
aS'IraqComm-2007-07-18T07-42-59-421-033'
p1396
aS'IraqComm-2007-07-18T07-42-59-421-035'
p1397
aS'IraqComm-2007-07-18T07-42-59-421-062'
p1398
aS'IraqComm-2007-07-18T08-10-36-500-001'
p1399
aS'IraqComm-2007-07-18T08-10-36-500-015'
p1400
aS'IraqComm-2007-07-18T08-10-36-500-021'
p1401
aS'IraqComm-2007-07-18T08-10-36-500-025'
p1402
aS'IraqComm-2007-07-18T08-10-36-500-028'
p1403
aS'IraqComm-2007-07-18T08-10-36-500-066'
p1404
aS'IraqComm-2007-07-18T08-10-36-500-068'
p1405
aS'IraqComm-2007-07-18T08-33-42-531-002'
p1406
aS'IraqComm-2007-07-18T08-33-42-531-010'
p1407
aS'IraqComm-2007-07-18T08-33-42-531-011'
p1408
aS'IraqComm-2007-07-18T08-33-42-531-013'
p1409
aS'IraqComm-2007-07-18T08-33-42-531-020'
p1410
aS'IraqComm-2007-07-18T08-33-42-531-024'
p1411
aS'IraqComm-2007-07-18T08-33-42-531-029'
p1412
aS'IraqComm-2007-07-18T08-33-42-531-030'
p1413
aS'IraqComm-2007-07-18T08-33-42-531-037'
p1414
aS'IraqComm-2007-07-18T08-33-42-531-039'
p1415
aS'IraqComm-2007-07-18T08-33-42-531-052'
p1416
aS'IraqComm-2007-07-18T08-33-42-531-054'
p1417
aS'IraqComm-2007-07-18T08-33-42-531-063'
p1418
aS'IraqComm-2007-07-18T09-59-22-953-005'
p1419
aS'IraqComm-2007-07-18T09-59-22-953-007'
p1420
aS'IraqComm-2007-07-18T09-59-22-953-017'
p1421
aS'IraqComm-2007-07-18T09-59-22-953-019'
p1422
aS'IraqComm-2007-07-18T09-59-22-953-021'
p1423
aS'IraqComm-2007-07-18T09-59-22-953-025'
p1424
aS'IraqComm-2007-07-18T09-59-22-953-027'
p1425
aS'IraqComm-2007-07-18T09-59-22-953-031'
p1426
aS'IraqComm-2007-07-18T09-59-22-953-038'
p1427
aS'IraqComm-2007-07-18T09-59-22-953-040'
p1428
aS'IraqComm-2007-07-18T09-59-22-953-044'
p1429
aS'IraqComm-2007-07-18T09-59-22-953-048'
p1430
aS'IraqComm-2007-07-18T09-59-22-953-052'
p1431
aS'IraqComm-2007-07-18T09-59-22-953-058'
p1432
aS'IraqComm-2007-07-18T09-59-22-953-061'
p1433
aS'IraqComm-2007-07-18T10-27-04-140-001'
p1434
aS'IraqComm-2007-07-18T10-27-04-140-003'
p1435
aS'IraqComm-2007-07-18T10-27-04-140-004'
p1436
aS'IraqComm-2007-07-18T10-27-04-140-007'
p1437
aS'IraqComm-2007-07-18T10-27-04-140-021'
p1438
aS'IraqComm-2007-07-18T10-27-04-140-027'
p1439
aS'IraqComm-2007-07-18T10-27-04-140-029'
p1440
aS'IraqComm-2007-07-18T10-27-04-140-057'
p1441
aS'IraqComm-2007-07-18T10-27-04-140-064'
p1442
aS'IraqComm-2007-07-18T10-27-04-140-072'
p1443
aS'IraqComm-2007-07-18T10-27-04-140-075'
p1444
aS'IraqComm-2007-07-18T10-47-27-546-007'
p1445
aS'IraqComm-2007-07-18T10-47-27-546-019'
p1446
aS'IraqComm-2007-07-18T10-47-27-546-031'
p1447
aS'IraqComm-2007-07-18T10-47-27-546-035'
p1448
aS'IraqComm-2007-07-18T10-47-27-546-039'
p1449
aS'IraqComm-2007-07-18T10-47-27-546-043'
p1450
aS'IraqComm-2007-07-18T10-47-27-546-045'
p1451
aS'IraqComm-2007-07-18T11-12-48-046-008'
p1452
aS'IraqComm-2007-07-18T11-12-48-046-012'
p1453
aS'IraqComm-2007-07-18T11-12-48-046-021'
p1454
aS'IraqComm-2008-06-10T11-11-27-218-046'
p1455
aS'IraqComm-2008-06-10T11-11-27-218-048'
p1456
aS'IraqComm-2008-06-10T11-11-27-218-059'
p1457
aS'IraqComm-2008-06-10T11-11-27-218-063'
p1458
aS'IraqComm-2008-06-10T11-39-58-562-013'
p1459
aS'IraqComm-2008-06-10T11-39-58-562-027'
p1460
aS'IraqComm-2008-06-10T11-39-58-562-046'
p1461
aS'IraqComm-2008-06-10T11-39-58-562-070'
p1462
aS'IraqComm-2008-06-10T11-39-58-562-073'
p1463
aS'IraqComm-2008-06-10T11-39-58-562-076'
p1464
aS'IraqComm-2008-06-10T11-39-58-562-087'
p1465
aS'IraqComm-2008-06-10T12-10-02-546-041'
p1466
aS'IraqComm-2008-06-10T12-10-02-546-044'
p1467
aS'IraqComm-2008-06-10T12-10-02-546-050'
p1468
aS'IraqComm-2008-06-10T12-10-02-546-062'
p1469
aS'IraqComm-2008-06-10T12-10-02-546-073'
p1470
aS'IraqComm-2008-06-10T13-17-56-828-001'
p1471
aS'IraqComm-2008-06-10T13-17-56-828-008'
p1472
aS'IraqComm-2008-06-10T13-17-56-828-010'
p1473
aS'IraqComm-2008-06-10T13-17-56-828-012'
p1474
aS'IraqComm-2008-06-10T13-17-56-828-016'
p1475
aS'IraqComm-2008-06-10T13-17-56-828-018'
p1476
aS'IraqComm-2008-06-10T13-17-56-828-020'
p1477
aS'IraqComm-2008-06-10T13-17-56-828-026'
p1478
aS'IraqComm-2008-06-10T13-17-56-828-029'
p1479
aS'IraqComm-2008-06-10T13-17-56-828-036'
p1480
aS'IraqComm-2008-06-10T13-17-56-828-038'
p1481
aS'IraqComm-2008-06-10T13-17-56-828-044'
p1482
aS'IraqComm-2008-06-10T13-17-56-828-057'
p1483
aS'IraqComm-2008-06-10T13-48-44-250-014'
p1484
aS'IraqComm-2008-06-10T13-48-44-250-045'
p1485
aS'IraqComm-2008-06-10T13-48-44-250-053'
p1486
aS'IraqComm-2008-06-10T13-48-44-250-055'
p1487
aS'IraqComm-2008-06-10T14-19-38-812-040'
p1488
aS'IraqComm-2008-06-10T14-19-38-812-050'
p1489
aS'IraqComm-2008-06-10T14-19-38-812-063'
p1490
aS'IraqComm-2008-06-11T05-35-20-421-003'
p1491
aS'IraqComm-2008-06-11T05-35-20-421-011'
p1492
aS'IraqComm-2008-06-11T05-35-20-421-019'
p1493
aS'IraqComm-2008-06-11T05-35-20-421-023'
p1494
aS'IraqComm-2008-06-11T05-35-20-421-026'
p1495
aS'IraqComm-2008-06-11T05-35-20-421-038'
p1496
aS'IraqComm-2008-06-11T05-35-20-421-040'
p1497
aS'IraqComm-2008-06-11T05-35-20-421-054'
p1498
aS'IraqComm-2008-06-11T05-35-20-421-058'
p1499
aS'IraqComm-2008-06-11T06-08-35-250-001'
p1500
aS'IraqComm-2008-06-11T06-08-35-250-005'
p1501
aS'IraqComm-2008-06-11T06-08-35-250-017'
p1502
aS'IraqComm-2008-06-11T06-08-35-250-019'
p1503
aS'IraqComm-2008-06-11T06-08-35-250-024'
p1504
aS'IraqComm-2008-06-11T06-08-35-250-026'
p1505
aS'IraqComm-2008-06-11T06-08-35-250-038'
p1506
aS'IraqComm-2008-06-11T06-08-35-250-070'
p1507
aS'IraqComm-2008-06-11T07-08-23-796-010'
p1508
aS'IraqComm-2008-06-11T07-08-23-796-019'
p1509
aS'IraqComm-2008-06-11T07-08-23-796-025'
p1510
aS'IraqComm-2008-06-11T07-08-23-796-053'
p1511
aS'IraqComm-2008-06-11T07-08-23-796-055'
p1512
aS'IraqComm-2008-06-11T07-08-23-796-064'
p1513
aS'IraqComm-2008-06-11T07-08-23-796-070'
p1514
aS'IraqComm-2008-06-11T07-08-23-796-078'
p1515
aS'IraqComm-2008-06-11T08-27-38-625-017'
p1516
aS'IraqComm-2008-06-11T08-27-38-625-034'
p1517
aS'IraqComm-2008-06-11T08-27-38-625-038'
p1518
aS'IraqComm-2008-06-11T08-27-38-625-045'
p1519
aS'IraqComm-2008-06-11T08-27-38-625-071'
p1520
aS'IraqComm-2008-06-11T08-27-38-625-073'
p1521
aS'IraqComm-2008-06-11T08-27-38-625-075'
p1522
aS'IraqComm-2008-06-11T08-27-38-625-079'
p1523
aS'IraqComm-2008-06-11T08-27-38-625-084'
p1524
aS'IraqComm-2008-06-11T08-52-50-421-007'
p1525
aS'IraqComm-2008-06-11T08-52-50-421-022'
p1526
aS'IraqComm-2008-06-11T08-52-50-421-024'
p1527
aS'IraqComm-2008-06-11T08-52-50-421-028'
p1528
aS'IraqComm-2008-06-11T08-52-50-421-030'
p1529
aS'IraqComm-2008-06-11T08-52-50-421-032'
p1530
aS'IraqComm-2008-06-11T08-52-50-421-034'
p1531
aS'IraqComm-2008-06-11T08-52-50-421-036'
p1532
aS'IraqComm-2008-06-11T08-52-50-421-039'
p1533
aS'IraqComm-2008-06-11T08-52-50-421-040'
p1534
aS'IraqComm-2008-06-11T08-52-50-421-043'
p1535
aS'IraqComm-2008-06-11T08-52-50-421-045'
p1536
aS'IraqComm-2008-06-11T08-52-50-421-047'
p1537
aS'IraqComm-2008-06-11T08-52-50-421-049'
p1538
aS'IraqComm-2008-06-11T08-52-50-421-055'
p1539
aS'IraqComm-2008-06-11T08-52-50-421-057'
p1540
aS'IraqComm-2008-06-11T08-52-50-421-063'
p1541
aS'IraqComm-2008-06-11T09-26-23-140-027'
p1542
aS'IraqComm-2008-06-11T09-26-23-140-031'
p1543
aS'IraqComm-2008-06-11T09-26-23-140-033'
p1544
aS'IraqComm-2008-06-11T09-26-23-140-043'
p1545
aS'IraqComm-2008-06-11T09-26-23-140-049'
p1546
aS'IraqComm-2008-06-11T09-26-23-140-053'
p1547
aS'IraqComm-2008-06-11T09-26-23-140-056'
p1548
aS'IraqComm-2008-06-11T09-26-23-140-058'
p1549
aS'IraqComm-2008-06-11T09-26-23-140-060'
p1550
aS'IraqComm-2008-06-11T11-23-44-140-004'
p1551
aS'IraqComm-2008-06-11T11-23-44-140-008'
p1552
aS'IraqComm-2008-06-11T11-23-44-140-011'
p1553
aS'IraqComm-2008-06-11T11-23-44-140-015'
p1554
aS'IraqComm-2008-06-11T11-23-44-140-021'
p1555
aS'IraqComm-2008-06-11T11-23-44-140-022'
p1556
aS'IraqComm-2008-06-11T11-23-44-140-028'
p1557
aS'IraqComm-2008-06-11T11-23-44-140-035'
p1558
aS'IraqComm-2008-06-11T11-23-44-140-040'
p1559
aS'IraqComm-2008-06-11T11-23-44-140-041'
p1560
aS'IraqComm-2008-06-11T11-23-44-140-043'
p1561
aS'IraqComm-2008-06-11T11-23-44-140-047'
p1562
aS'IraqComm-2008-06-11T11-23-44-140-050'
p1563
aS'IraqComm-2008-06-11T11-23-44-140-052'
p1564
aS'IraqComm-2008-06-11T11-23-44-140-054'
p1565
aS'IraqComm-2008-06-11T11-23-44-140-055'
p1566
aS'IraqComm-2008-06-11T11-23-44-140-057'
p1567
aS'IraqComm-2008-06-11T11-23-44-140-064'
p1568
aS'IraqComm-2008-06-11T11-23-44-140-066'
p1569
aS'IraqComm-2008-06-11T11-50-42-296-001'
p1570
aS'IraqComm-2008-06-11T11-50-42-296-010'
p1571
aS'IraqComm-2008-06-11T11-50-42-296-014'
p1572
aS'IraqComm-2008-06-11T11-50-42-296-016'
p1573
aS'IraqComm-2008-06-11T11-50-42-296-025'
p1574
aS'IraqComm-2008-06-11T11-50-42-296-051'
p1575
aS'IraqComm-2008-06-11T11-50-42-296-053'
p1576
aS'IraqComm-2008-06-11T11-50-42-296-064'
p1577
aS'IraqComm-2008-06-11T11-50-42-296-070'
p1578
aS'IraqComm-2008-06-11T12-23-14-734-004'
p1579
aS'IraqComm-2008-06-11T12-23-14-734-009'
p1580
aS'IraqComm-2008-06-11T12-23-14-734-020'
p1581
aS'IraqComm-2008-06-11T12-23-14-734-024'
p1582
aS'IraqComm-2008-06-11T12-23-14-734-026'
p1583
aS'IraqComm-2008-06-11T12-23-14-734-031'
p1584
aS'IraqComm-2008-06-11T12-23-14-734-042'
p1585
aS'IraqComm-2008-06-11T12-23-14-734-047'
p1586
aS'IraqComm-2008-06-11T12-23-14-734-054'
p1587
aS'IraqComm-2008-06-11T12-23-14-734-056'
p1588
aS'IraqComm-2008-06-11T12-23-14-734-061'
p1589
aS'IraqComm-2008-06-11T12-23-14-734-063'
p1590
aS'IraqComm-2008-06-11T12-23-14-734-069'
p1591
aS'IraqComm-2008-06-11T13-30-58-500-010'
p1592
aS'IraqComm-2008-06-11T13-30-58-500-014'
p1593
aS'IraqComm-2008-06-11T13-30-58-500-026'
p1594
aS'IraqComm-2008-06-11T13-30-58-500-038'
p1595
aS'IraqComm-2008-06-11T13-30-58-500-042'
p1596
aS'IraqComm-2008-06-11T13-30-58-500-047'
p1597
aS'IraqComm-2008-06-11T13-30-58-500-059'
p1598
aS'IraqComm-2008-06-11T13-30-58-500-066'
p1599
aS'IraqComm-2008-06-11T13-30-58-500-068'
p1600
aS'IraqComm-2008-06-11T13-30-58-500-070'
p1601
aS'IraqComm-2008-06-11T13-30-58-500-077'
p1602
aS'IraqComm-2008-06-11T14-00-23-421-007'
p1603
aS'IraqComm-2008-06-11T14-00-23-421-016'
p1604
aS'IraqComm-2008-06-11T14-00-23-421-020'
p1605
aS'IraqComm-2008-06-11T14-00-23-421-022'
p1606
aS'IraqComm-2008-06-11T14-00-23-421-026'
p1607
aS'IraqComm-2008-06-11T14-00-23-421-028'
p1608
aS'IraqComm-2008-06-11T14-00-23-421-030'
p1609
aS'IraqComm-2008-06-11T14-00-23-421-037'
p1610
aS'IraqComm-2008-06-11T14-00-23-421-045'
p1611
aS'IraqComm-2008-06-11T14-00-23-421-047'
p1612
aS'IraqComm-2008-06-11T14-00-23-421-051'
p1613
aS'IraqComm-2008-06-11T14-00-23-421-053'
p1614
aS'IraqComm-2008-06-11T14-00-23-421-057'
p1615
aS'IraqComm-2008-06-11T14-00-23-421-059'
p1616
aS'IraqComm-2008-06-11T14-00-23-421-067'
p1617
aS'IraqComm-2008-06-11T14-00-23-421-069'
p1618
aS'IraqComm-2008-06-11T14-26-06-625-018'
p1619
aS'IraqComm-2008-06-11T14-26-06-625-020'
p1620
aS'IraqComm-2008-06-11T14-26-06-625-022'
p1621
aS'IraqComm-2008-06-11T14-26-06-625-024'
p1622
aS'IraqComm-2008-06-11T14-26-06-625-028'
p1623
aS'IraqComm-2008-06-11T14-26-06-625-031'
p1624
aS'IraqComm-2008-06-11T14-26-06-625-033'
p1625
aS'IraqComm-2008-06-11T14-26-06-625-035'
p1626
aS'IraqComm-2008-06-11T14-26-06-625-037'
p1627
aS'IraqComm-2008-06-11T14-26-06-625-039'
p1628
aS'IraqComm-2008-06-11T14-26-06-625-044'
p1629
aS'IraqComm-2008-06-11T14-26-06-625-046'
p1630
aS'IraqComm-2008-06-11T14-26-06-625-048'
p1631
aS'IraqComm-2008-06-11T14-26-06-625-050'
p1632
aS'IraqComm-2008-06-11T14-26-06-625-059'
p1633
aS'IraqComm-2008-06-11T14-26-06-625-061'
p1634
aS'IraqComm-2008-06-11T14-26-06-625-063'
p1635
aS'IraqComm-2008-06-12T05-50-44-843-001'
p1636
aS'IraqComm-2008-06-12T05-50-44-843-013'
p1637
aS'IraqComm-2008-06-12T05-50-44-843-033'
p1638
aS'IraqComm-2008-06-12T05-50-44-843-035'
p1639
aS'IraqComm-2008-06-12T05-50-44-843-037'
p1640
aS'IraqComm-2008-06-12T05-50-44-843-053'
p1641
aS'IraqComm-2008-06-12T05-50-44-843-055'
p1642
aS'IraqComm-2008-06-12T05-50-44-843-058'
p1643
aS'IraqComm-2008-06-12T05-50-44-843-067'
p1644
aS'IraqComm-2008-06-12T06-12-04-656-007'
p1645
aS'IraqComm-2008-06-12T06-12-04-656-015'
p1646
aS'IraqComm-2008-06-12T06-12-04-656-019'
p1647
aS'IraqComm-2008-06-12T06-12-04-656-023'
p1648
aS'IraqComm-2008-06-12T06-12-04-656-025'
p1649
aS'IraqComm-2008-06-12T06-12-04-656-027'
p1650
aS'IraqComm-2008-06-12T06-12-04-656-028'
p1651
aS'IraqComm-2008-06-12T06-12-04-656-032'
p1652
aS'IraqComm-2008-06-12T06-12-04-656-034'
p1653
aS'IraqComm-2008-06-12T06-12-04-656-036'
p1654
aS'IraqComm-2008-06-12T06-12-04-656-040'
p1655
aS'IraqComm-2008-06-12T06-12-04-656-042'
p1656
aS'IraqComm-2008-06-12T06-12-04-656-044'
p1657
aS'IraqComm-2008-06-12T06-12-04-656-048'
p1658
aS'IraqComm-2008-06-12T06-12-04-656-050'
p1659
aS'IraqComm-2008-06-12T06-12-04-656-053'
p1660
aS'IraqComm-2008-06-12T06-45-07-093-011'
p1661
aS'IraqComm-2008-06-12T06-45-07-093-015'
p1662
aS'IraqComm-2008-06-12T06-45-07-093-026'
p1663
aS'IraqComm-2008-06-12T06-45-07-093-028'
p1664
aS'IraqComm-2008-06-12T06-45-07-093-041'
p1665
aS'IraqComm-2008-06-12T06-45-07-093-045'
p1666
aS'IraqComm-2008-06-12T06-45-07-093-047'
p1667
aS'IraqComm-2008-06-12T06-45-07-093-049'
p1668
aS'IraqComm-2008-06-12T06-45-07-093-056'
p1669
aS'IraqComm-2008-06-12T06-45-07-093-058'
p1670
aS'IraqComm-2008-06-12T07-59-22-093-007'
p1671
aS'IraqComm-2008-06-12T07-59-22-093-020'
p1672
aS'IraqComm-2008-06-12T07-59-22-093-029'
p1673
aS'IraqComm-2008-06-12T07-59-22-093-031'
p1674
aS'IraqComm-2008-06-12T07-59-22-093-039'
p1675
aS'IraqComm-2008-06-12T07-59-22-093-049'
p1676
aS'IraqComm-2008-06-12T07-59-22-093-055'
p1677
aS'IraqComm-2008-06-12T07-59-22-093-059'
p1678
aS'IraqComm-2008-06-12T08-39-23-109-008'
p1679
aS'IraqComm-2008-06-12T08-39-23-109-009'
p1680
aS'IraqComm-2008-06-12T08-39-23-109-012'
p1681
aS'IraqComm-2008-06-12T08-39-23-109-040'
p1682
aS'IraqComm-2008-06-12T08-39-23-109-041'
p1683
aS'IraqComm-2008-06-12T08-39-23-109-043'
p1684
aS'IraqComm-2008-06-12T08-39-23-109-045'
p1685
aS'IraqComm-2008-06-12T08-39-23-109-049'
p1686
aS'IraqComm-2008-06-12T08-39-23-109-051'
p1687
aS'IraqComm-2008-06-12T08-39-23-109-054'
p1688
aS'IraqComm-2008-06-12T08-39-23-109-059'
p1689
aS'IraqComm-2008-06-12T08-39-23-109-060'
p1690
aS'IraqComm-2008-06-12T08-39-23-109-062'
p1691
aS'IraqComm-2008-06-12T08-39-23-109-066'
p1692
aS'IraqComm-2008-06-12T08-39-23-109-068'
p1693
aS'IraqComm-2008-06-12T08-39-23-109-070'
p1694
aS'IraqComm-2008-06-12T08-39-23-109-071'
p1695
aS'IraqComm-2008-06-12T08-39-23-109-075'
p1696
aS'IraqComm-2008-06-12T08-39-23-109-076'
p1697
aS'IraqComm-2008-06-12T08-39-23-109-077'
p1698
aS'IraqComm-2008-06-12T08-39-23-109-082'
p1699
aS'IraqComm-2008-06-12T09-04-41-593-008'
p1700
aS'IraqComm-2008-06-12T09-04-41-593-012'
p1701
aS'IraqComm-2008-06-12T09-04-41-593-014'
p1702
aS'IraqComm-2008-06-12T09-04-41-593-016'
p1703
aS'IraqComm-2008-06-12T09-04-41-593-018'
p1704
aS'IraqComm-2008-06-12T09-04-41-593-019'
p1705
aS'IraqComm-2008-06-12T09-04-41-593-027'
p1706
aS'IraqComm-2008-06-12T09-04-41-593-046'
p1707
aS'IraqComm-2008-06-12T09-04-41-593-058'
p1708
aS'IraqComm-2008-06-12T14-37-33-203-010'
p1709
aS'IraqComm-2008-06-12T14-37-33-203-025'
p1710
aS'IraqComm-2008-06-12T14-37-33-203-031'
p1711
aS'IraqComm-2008-06-12T14-37-33-203-045'
p1712
aS'IraqComm-2008-06-12T14-37-33-203-073'
p1713
aS'DariComm-2009-06-23T07-00-35-875-007'
p1714
aS'DariComm-2009-06-23T07-00-35-875-010'
p1715
aS'DariComm-2009-06-23T07-00-35-875-012'
p1716
aS'DariComm-2009-06-23T07-00-35-875-015'
p1717
aS'DariComm-2009-06-23T07-00-35-875-020'
p1718
aS'DariComm-2009-06-23T07-00-35-875-025'
p1719
aS'DariComm-2009-06-23T07-00-35-875-028'
p1720
aS'DariComm-2009-06-23T07-00-35-875-034'
p1721
aS'DariComm-2009-06-23T07-00-35-875-039'
p1722
aS'DariComm-2009-06-23T07-00-35-875-043'
p1723
aS'DariComm-2009-06-23T07-00-35-875-049'
p1724
aS'DariComm-2009-06-23T07-00-35-875-059'
p1725
aS'DariComm-2009-06-23T07-00-35-875-062'
p1726
aS'DariComm-2009-06-23T07-00-35-875-066'
p1727
aS'DariComm-2009-06-23T07-00-35-875-072'
p1728
aS'DariComm-2009-06-23T07-00-35-875-078'
p1729
aS'DariComm-2009-06-23T07-45-57-843-001'
p1730
aS'DariComm-2009-06-23T07-45-57-843-009'
p1731
aS'DariComm-2009-06-23T07-45-57-843-010'
p1732
aS'DariComm-2009-06-23T07-45-57-843-014'
p1733
aS'DariComm-2009-06-23T07-45-57-843-020'
p1734
aS'DariComm-2009-06-23T07-45-57-843-023'
p1735
aS'DariComm-2009-06-23T07-45-57-843-029'
p1736
aS'DariComm-2009-06-23T07-45-57-843-030'
p1737
aS'DariComm-2009-06-23T07-45-57-843-032'
p1738
aS'DariComm-2009-06-23T07-45-57-843-034'
p1739
aS'DariComm-2009-06-23T07-45-57-843-035'
p1740
aS'DariComm-2009-06-23T07-45-57-843-037'
p1741
aS'DariComm-2009-06-23T07-45-57-843-038'
p1742
aS'DariComm-2009-06-23T07-45-57-843-039'
p1743
aS'DariComm-2009-06-23T07-45-57-843-040'
p1744
aS'DariComm-2009-06-23T07-45-57-843-043'
p1745
aS'DariComm-2009-06-23T07-45-57-843-044'
p1746
aS'DariComm-2009-06-23T07-45-57-843-054'
p1747
aS'DariComm-2009-06-23T07-45-57-843-056'
p1748
aS'DariComm-2009-06-23T07-45-57-843-060'
p1749
aS'DariComm-2009-06-23T07-45-57-843-064'
p1750
aS'DariComm-2009-06-23T07-45-57-843-065'
p1751
aS'DariComm-2009-06-23T08-21-08-234-010'
p1752
aS'DariComm-2009-06-23T08-21-08-234-021'
p1753
aS'DariComm-2009-06-23T08-21-08-234-043'
p1754
aS'DariComm-2009-06-23T08-21-08-234-065'
p1755
aS'DariComm-2009-06-23T08-21-08-234-072'
p1756
aS'DariComm-2009-06-23T08-21-08-234-076'
p1757
aS'DariComm-2009-06-23T08-21-08-234-078'
p1758
aS'DariComm-2009-06-23T08-21-08-234-099'
p1759
aS'DariComm-2009-06-23T08-21-08-234-101'
p1760
aS'DariComm-2009-06-23T10-52-27-296-004'
p1761
aS'DariComm-2009-06-23T10-52-27-296-023'
p1762
aS'DariComm-2009-06-23T10-52-27-296-026'
p1763
aS'DariComm-2009-06-23T10-52-27-296-027'
p1764
aS'DariComm-2009-06-23T10-52-27-296-029'
p1765
aS'DariComm-2009-06-23T10-52-27-296-031'
p1766
aS'DariComm-2009-06-23T10-52-27-296-035'
p1767
aS'DariComm-2009-06-23T10-52-27-296-045'
p1768
aS'DariComm-2009-06-23T10-52-27-296-063'
p1769
aS'DariComm-2009-06-23T10-52-27-296-066'
p1770
aS'DariComm-2009-06-23T10-52-27-296-068'
p1771
aS'DariComm-2009-06-23T10-52-27-296-081'
p1772
aS'DariComm-2009-06-23T10-52-27-296-085'
p1773
aS'DariComm-2009-06-23T10-52-27-296-090'
p1774
aS'DariComm-2009-06-23T11-29-57-609-002'
p1775
aS'DariComm-2009-06-23T11-29-57-609-004'
p1776
aS'DariComm-2009-06-23T11-29-57-609-006'
p1777
aS'DariComm-2009-06-23T11-29-57-609-014'
p1778
aS'DariComm-2009-06-23T11-29-57-609-016'
p1779
aS'DariComm-2009-06-23T11-29-57-609-028'
p1780
aS'DariComm-2009-06-23T11-29-57-609-042'
p1781
aS'DariComm-2009-06-23T11-29-57-609-046'
p1782
aS'DariComm-2009-06-23T11-29-57-609-052'
p1783
aS'DariComm-2009-06-23T11-29-57-609-062'
p1784
aS'DariComm-2009-06-23T11-29-57-609-064'
p1785
aS'DariComm-2009-06-23T11-29-57-609-066'
p1786
aS'DariComm-2009-06-23T11-29-57-609-072'
p1787
aS'DariComm-2009-06-23T11-29-57-609-078'
p1788
aS'DariComm-2009-06-23T11-29-57-609-082'
p1789
aS'DariComm-2009-06-23T11-29-57-609-090'
p1790
aS'DariComm-2009-06-23T11-29-57-609-092'
p1791
aS'DariComm-2009-06-23T11-29-57-609-098'
p1792
aS'DariComm-2009-06-23T11-29-57-609-102'
p1793
aS'DariComm-2009-06-23T11-29-57-609-103'
p1794
aS'DariComm-2009-06-23T12-24-14-625-009'
p1795
aS'DariComm-2009-06-23T12-24-14-625-013'
p1796
aS'DariComm-2009-06-23T12-24-14-625-020'
p1797
aS'DariComm-2009-06-23T12-24-14-625-021'
p1798
aS'DariComm-2009-06-23T12-24-14-625-024'
p1799
aS'DariComm-2009-06-23T12-24-14-625-027'
p1800
aS'DariComm-2009-06-23T12-24-14-625-029'
p1801
aS'DariComm-2009-06-23T12-24-14-625-031'
p1802
aS'DariComm-2009-06-23T12-24-14-625-037'
p1803
aS'DariComm-2009-06-23T12-24-14-625-041'
p1804
aS'DariComm-2009-06-23T12-24-14-625-042'
p1805
aS'DariComm-2009-06-23T12-24-14-625-047'
p1806
aS'DariComm-2009-06-23T12-24-14-625-053'
p1807
aS'DariComm-2009-06-23T12-24-14-625-054'
p1808
aS'DariComm-2009-06-23T12-24-14-625-063'
p1809
aS'DariComm-2009-06-23T12-24-14-625-065'
p1810
aS'DariComm-2009-06-23T12-24-14-625-067'
p1811
aS'DariComm-2009-06-23T12-24-14-625-072'
p1812
aS'DariComm-2009-06-23T12-24-14-625-074'
p1813
aS'DariComm-2009-06-23T12-24-14-625-089'
p1814
aS'DariComm-2009-06-23T12-24-14-625-093'
p1815
aS'DariComm-2009-06-23T12-24-14-625-102'
p1816
aS'DariComm-2009-06-23T12-24-14-625-104'
p1817
aS'DariComm-2009-06-24T06-28-47-875-002'
p1818
aS'DariComm-2009-06-24T06-28-47-875-010'
p1819
aS'DariComm-2009-06-24T06-28-47-875-012'
p1820
aS'DariComm-2009-06-24T06-28-47-875-018'
p1821
aS'DariComm-2009-06-24T06-28-47-875-022'
p1822
aS'DariComm-2009-06-24T06-28-47-875-035'
p1823
aS'DariComm-2009-06-24T06-28-47-875-037'
p1824
aS'DariComm-2009-06-24T06-28-47-875-040'
p1825
aS'DariComm-2009-06-24T06-28-47-875-042'
p1826
aS'DariComm-2009-06-24T06-28-47-875-044'
p1827
aS'DariComm-2009-06-24T06-28-47-875-046'
p1828
aS'DariComm-2009-06-24T06-28-47-875-048'
p1829
aS'DariComm-2009-06-24T06-28-47-875-050'
p1830
aS'DariComm-2009-06-24T06-28-47-875-059'
p1831
aS'DariComm-2009-06-24T06-28-47-875-061'
p1832
aS'DariComm-2009-06-24T06-28-47-875-063'
p1833
aS'DariComm-2009-06-24T06-28-47-875-065'
p1834
aS'DariComm-2009-06-24T06-28-47-875-067'
p1835
aS'DariComm-2009-06-24T06-28-47-875-069'
p1836
aS'DariComm-2009-06-24T06-28-47-875-071'
p1837
aS'DariComm-2009-06-24T06-28-47-875-073'
p1838
aS'DariComm-2009-06-24T06-28-47-875-075'
p1839
aS'DariComm-2009-06-24T06-28-47-875-077'
p1840
aS'DariComm-2009-06-24T06-28-47-875-080'
p1841
aS'DariComm-2009-06-24T06-28-47-875-085'
p1842
aS'DariComm-2009-06-24T07-15-40-593-013'
p1843
aS'DariComm-2009-06-24T07-15-40-593-019'
p1844
aS'DariComm-2009-06-24T07-15-40-593-021'
p1845
aS'DariComm-2009-06-24T07-15-40-593-041'
p1846
aS'DariComm-2009-06-24T07-15-40-593-044'
p1847
aS'DariComm-2009-06-24T07-15-40-593-052'
p1848
aS'DariComm-2009-06-24T07-15-40-593-059'
p1849
aS'DariComm-2009-06-24T07-15-40-593-071'
p1850
aS'DariComm-2009-06-24T07-56-54-343-014'
p1851
aS'DariComm-2009-06-24T07-56-54-343-045'
p1852
aS'DariComm-2009-06-24T07-56-54-343-049'
p1853
aS'DariComm-2009-06-24T07-56-54-343-071'
p1854
aS'DariComm-2009-06-24T07-56-54-343-082'
p1855
aS'DariComm-2009-06-24T07-56-54-343-085'
p1856
aS'DariComm-2009-06-24T07-56-54-343-091'
p1857
aS'DariComm-2009-06-24T07-56-54-343-095'
p1858
aS'DariComm-2009-06-24T07-56-54-343-106'
p1859
aS'DariComm-2009-06-24T07-56-54-343-122'
p1860
aS'DariComm-2009-06-24T07-56-54-343-129'
p1861
aS'DariComm-2009-06-24T07-56-54-343-131'
p1862
aS'DariComm-2009-06-24T07-56-54-343-133'
p1863
aS'DariComm-2009-06-24T10-24-29-421-003'
p1864
aS'DariComm-2009-06-24T10-24-29-421-004'
p1865
aS'DariComm-2009-06-24T10-24-29-421-016'
p1866
aS'DariComm-2009-06-24T10-24-29-421-037'
p1867
aS'DariComm-2009-06-24T10-24-29-421-041'
p1868
aS'DariComm-2009-06-24T10-24-29-421-049'
p1869
aS'DariComm-2009-06-24T10-53-31-281-003'
p1870
aS'DariComm-2009-06-24T10-53-31-281-005'
p1871
aS'DariComm-2009-06-24T10-53-31-281-009'
p1872
aS'DariComm-2009-06-24T10-53-31-281-012'
p1873
aS'DariComm-2009-06-24T10-53-31-281-014'
p1874
aS'DariComm-2009-06-24T10-53-31-281-025'
p1875
aS'DariComm-2009-06-24T10-53-31-281-028'
p1876
aS'DariComm-2009-06-24T11-12-07-218-001'
p1877
aS'DariComm-2009-06-24T11-12-07-218-005'
p1878
aS'DariComm-2009-06-24T11-12-07-218-010'
p1879
aS'DariComm-2009-06-24T11-12-07-218-014'
p1880
aS'DariComm-2009-06-24T11-12-07-218-017'
p1881
aS'DariComm-2009-06-24T11-12-07-218-019'
p1882
aS'DariComm-2009-06-24T11-12-07-218-022'
p1883
aS'DariComm-2009-06-24T11-12-07-218-031'
p1884
aS'DariComm-2009-06-24T11-12-07-218-039'
p1885
aS'DariComm-2009-06-24T11-12-07-218-048'
p1886
aS'DariComm-2009-06-24T11-12-07-218-050'
p1887
aS'DariComm-2009-06-24T11-12-07-218-052'
p1888
aS'DariComm-2009-06-24T11-12-07-218-058'
p1889
aS'DariComm-2009-06-24T11-12-07-218-063'
p1890
aS'DariComm-2009-06-24T11-12-07-218-064'
p1891
aS'DariComm-2009-06-24T11-12-07-218-066'
p1892
aS'DariComm-2009-06-24T11-12-07-218-067'
p1893
aS'DariComm-2009-06-24T11-12-07-218-069'
p1894
aS'DariComm-2009-06-24T11-12-07-218-089'
p1895
aS'DariComm-2009-06-24T11-12-07-218-093'
p1896
aS'DariComm-2009-06-24T11-58-01-296-002'
p1897
aS'DariComm-2009-06-24T11-58-01-296-007'
p1898
aS'DariComm-2009-06-24T11-58-01-296-008'
p1899
aS'DariComm-2009-06-24T11-58-01-296-024'
p1900
aS'DariComm-2009-06-24T11-58-01-296-026'
p1901
aS'DariComm-2009-06-24T11-58-01-296-035'
p1902
aS'DariComm-2009-06-24T11-58-01-296-036'
p1903
aS'DariComm-2009-06-24T11-58-01-296-038'
p1904
aS'DariComm-2009-06-24T11-58-01-296-042'
p1905
aS'DariComm-2009-06-24T11-58-01-296-050'
p1906
aS'DariComm-2009-06-24T11-58-01-296-069'
p1907
aS'DariComm-2009-06-24T11-58-01-296-071'
p1908
aS'DariComm-2009-06-24T11-58-01-296-073'
p1909
aS'DariComm-2009-06-24T11-58-01-296-079'
p1910
aS'DariComm-2009-06-24T11-58-01-296-089'
p1911
aS'DariComm-2009-06-24T11-58-01-296-103'
p1912
aS'DariComm-2009-06-24T11-58-01-296-106'
p1913
aS'DariComm-2009-06-24T11-58-01-296-114'
p1914
aS'DariComm-2009-06-24T11-58-01-296-129'
p1915
aS'DariComm-2009-06-25T06-23-38-875-004'
p1916
aS'DariComm-2009-06-25T06-23-38-875-014'
p1917
aS'DariComm-2009-06-25T06-23-38-875-016'
p1918
aS'DariComm-2009-06-25T06-23-38-875-022'
p1919
aS'DariComm-2009-06-25T06-23-38-875-027'
p1920
aS'DariComm-2009-06-25T06-23-38-875-029'
p1921
aS'DariComm-2009-06-25T06-23-38-875-031'
p1922
aS'DariComm-2009-06-25T06-23-38-875-034'
p1923
aS'DariComm-2009-06-25T06-23-38-875-036'
p1924
aS'DariComm-2009-06-25T06-23-38-875-039'
p1925
aS'DariComm-2009-06-25T06-23-38-875-044'
p1926
aS'DariComm-2009-06-25T06-23-38-875-045'
p1927
aS'DariComm-2009-06-25T06-23-38-875-053'
p1928
aS'DariComm-2009-06-25T06-23-38-875-055'
p1929
aS'DariComm-2009-06-25T06-23-38-875-059'
p1930
aS'DariComm-2009-06-25T06-23-38-875-061'
p1931
aS'DariComm-2009-06-25T06-23-38-875-065'
p1932
aS'DariComm-2009-06-25T06-23-38-875-068'
p1933
aS'DariComm-2009-06-25T07-20-55-109-006'
p1934
aS'DariComm-2009-06-25T07-20-55-109-019'
p1935
aS'DariComm-2009-06-25T07-20-55-109-022'
p1936
aS'DariComm-2009-06-25T07-20-55-109-024'
p1937
aS'DariComm-2009-06-25T07-20-55-109-026'
p1938
aS'DariComm-2009-06-25T07-20-55-109-034'
p1939
aS'DariComm-2009-06-25T07-20-55-109-038'
p1940
aS'DariComm-2009-06-25T07-20-55-109-045'
p1941
aS'DariComm-2009-06-25T07-20-55-109-049'
p1942
aS'DariComm-2009-06-25T07-20-55-109-062'
p1943
aS'DariComm-2009-06-25T07-20-55-109-064'
p1944
aS'DariComm-2009-06-25T07-20-55-109-071'
p1945
aS'DariComm-2009-06-25T07-20-55-109-076'
p1946
aS'DariComm-2009-06-25T07-20-55-109-081'
p1947
aS'DariComm-2009-06-25T07-20-55-109-083'
p1948
aS'DariComm-2009-06-25T08-00-12-500-024'
p1949
aS'DariComm-2009-06-25T08-00-12-500-041'
p1950
aS'DariComm-2009-06-25T08-00-12-500-043'
p1951
aS'DariComm-2009-06-25T08-00-12-500-044'
p1952
aS'DariComm-2009-06-25T08-00-12-500-055'
p1953
aS'DariComm-2009-06-25T08-00-12-500-060'
p1954
aS'DariComm-2009-06-25T08-00-12-500-066'
p1955
aS'DariComm-2009-06-25T08-00-12-500-067'
p1956
aS'DariComm-2009-06-25T08-00-12-500-069'
p1957
aS'DariComm-2009-06-25T08-00-12-500-071'
p1958
aS'DariComm-2009-06-25T08-00-12-500-076'
p1959
aS'DariComm-2009-06-25T08-00-12-500-077'
p1960
aS'DariComm-2009-06-25T08-00-12-500-078'
p1961
aS'DariComm-2009-06-25T08-00-12-500-084'
p1962
aS'DariComm-2009-06-25T08-00-12-500-087'
p1963
aS'DariComm-2009-06-25T08-00-12-500-088'
p1964
aS'DariComm-2009-06-25T08-00-12-500-090'
p1965
aS'DariComm-2009-06-25T08-00-12-500-097'
p1966
aS'DariComm-2009-06-25T08-00-12-500-098'
p1967
aS'DariComm-2009-06-25T08-00-12-500-104'
p1968
aS'DariComm-2009-06-25T08-00-12-500-106'
p1969
aS'DariComm-2009-06-25T10-07-07-265-004'
p1970
aS'DariComm-2009-06-25T10-07-07-265-007'
p1971
aS'DariComm-2009-06-25T10-07-07-265-034'
p1972
aS'DariComm-2009-06-25T10-07-07-265-036'
p1973
aS'DariComm-2009-06-25T10-07-07-265-039'
p1974
aS'DariComm-2009-06-25T10-07-07-265-045'
p1975
aS'DariComm-2009-06-25T10-07-07-265-055'
p1976
aS'DariComm-2009-06-25T10-07-07-265-059'
p1977
aS'DariComm-2009-06-25T10-07-07-265-063'
p1978
aS'DariComm-2009-06-25T10-07-07-265-066'
p1979
aS'DariComm-2009-06-25T10-07-07-265-071'
p1980
aS'DariComm-2009-06-25T10-07-07-265-079'
p1981
aS'DariComm-2009-06-25T10-07-07-265-085'
p1982
aS'DariComm-2009-06-25T10-07-07-265-091'
p1983
aS'DariComm-2009-06-25T11-05-11-062-002'
p1984
aS'DariComm-2009-06-25T11-05-11-062-009'
p1985
aS'DariComm-2009-06-25T11-05-11-062-012'
p1986
aS'DariComm-2009-06-25T11-05-11-062-014'
p1987
aS'DariComm-2009-06-25T11-05-11-062-015'
p1988
aS'DariComm-2009-06-25T11-05-11-062-020'
p1989
aS'DariComm-2009-06-25T11-05-11-062-022'
p1990
aS'DariComm-2009-06-25T11-05-11-062-024'
p1991
aS'DariComm-2009-06-25T11-05-11-062-028'
p1992
aS'DariComm-2009-06-25T11-05-11-062-030'
p1993
aS'DariComm-2009-06-25T11-05-11-062-033'
p1994
aS'DariComm-2009-06-25T11-05-11-062-035'
p1995
aS'DariComm-2009-06-25T11-05-11-062-037'
p1996
aS'DariComm-2009-06-25T11-05-11-062-040'
p1997
aS'DariComm-2009-06-25T11-05-11-062-041'
p1998
aS'DariComm-2009-06-25T11-05-11-062-043'
p1999
aS'DariComm-2009-06-25T11-05-11-062-045'
p2000
aS'DariComm-2009-06-25T11-05-11-062-048'
p2001
aS'DariComm-2009-06-25T11-05-11-062-050'
p2002
aS'DariComm-2009-06-25T11-05-11-062-051'
p2003
aS'DariComm-2009-06-25T11-05-11-062-053'
p2004
aS'DariComm-2009-06-25T11-05-11-062-060'
p2005
aS'DariComm-2009-06-25T11-05-11-062-062'
p2006
aS'DariComm-2009-06-25T11-05-11-062-064'
p2007
aS'DariComm-2009-06-25T11-05-11-062-065'
p2008
aS'DariComm-2009-06-25T11-05-11-062-068'
p2009
aS'DariComm-2009-06-25T11-05-11-062-071'
p2010
aS'DariComm-2009-06-25T11-05-11-062-075'
p2011
aS'DariComm-2009-06-25T11-05-11-062-082'
p2012
aS'DariComm-2009-06-25T11-05-11-062-086'
p2013
aS'DariComm-2009-06-25T12-01-55-937-043'
p2014
aS'DariComm-2009-06-25T12-01-55-937-053'
p2015
aS'DariComm-2009-06-25T12-01-55-937-067'
p2016
aS'DariComm-2009-06-25T12-01-55-937-080'
p2017
aS'DariComm-2009-06-26T05-54-47-937-003'
p2018
aS'DariComm-2009-06-26T05-54-47-937-015'
p2019
aS'DariComm-2009-06-26T05-54-47-937-019'
p2020
aS'DariComm-2009-06-26T05-54-47-937-021'
p2021
aS'DariComm-2009-06-26T05-54-47-937-022'
p2022
aS'DariComm-2009-06-26T05-54-47-937-027'
p2023
aS'DariComm-2009-06-26T05-54-47-937-038'
p2024
aS'DariComm-2009-06-26T05-54-47-937-039'
p2025
aS'DariComm-2009-06-26T05-54-47-937-040'
p2026
aS'DariComm-2009-06-26T05-54-47-937-045'
p2027
aS'DariComm-2009-06-26T05-54-47-937-066'
p2028
aS'DariComm-2009-06-26T05-54-47-937-068'
p2029
aS'DariComm-2009-06-26T05-54-47-937-080'
p2030
aS'DariComm-2009-06-26T05-54-47-937-083'
p2031
aS'DariComm-2009-06-26T05-54-47-937-085'
p2032
aS'DariComm-2009-06-26T05-54-47-937-092'
p2033
aS'DariComm-2009-06-26T06-40-25-218-004'
p2034
aS'DariComm-2009-06-26T06-40-25-218-008'
p2035
aS'DariComm-2009-06-26T06-40-25-218-010'
p2036
aS'DariComm-2009-06-26T06-55-36-218-003'
p2037
aS'DariComm-2009-06-26T06-55-36-218-012'
p2038
aS'DariComm-2009-06-26T07-09-52-203-031'
p2039
aS'DariComm-2009-06-26T07-09-52-203-033'
p2040
aS'DariComm-2009-06-26T07-09-52-203-036'
p2041
aS'DariComm-2009-06-26T07-09-52-203-038'
p2042
aS'DariComm-2009-06-26T07-09-52-203-041'
p2043
aS'DariComm-2009-06-26T07-09-52-203-047'
p2044
aS'DariComm-2009-06-26T07-09-52-203-050'
p2045
aS'DariComm-2009-06-26T07-09-52-203-052'
p2046
aS'DariComm-2009-06-26T07-09-52-203-054'
p2047
aS'DariComm-2009-06-26T07-09-52-203-060'
p2048
aS'DariComm-2009-06-26T07-09-52-203-062'
p2049
aS'DariComm-2009-06-26T07-09-52-203-065'
p2050
aS'DariComm-2009-06-26T07-09-52-203-067'
p2051
aS'DariComm-2009-06-26T07-09-52-203-071'
p2052
aS'DariComm-2009-06-26T07-09-52-203-075'
p2053
aS'DariComm-2009-06-26T07-09-52-203-076'
p2054
aS'DariComm-2009-06-26T07-09-52-203-089'
p2055
aS'DariComm-2009-06-26T09-34-15-812-016'
p2056
aS'DariComm-2009-06-26T09-34-15-812-031'
p2057
aS'DariComm-2009-06-26T09-34-15-812-041'
p2058
aS'DariComm-2009-06-26T09-34-15-812-052'
p2059
aS'DariComm-2009-06-26T09-34-15-812-064'
p2060
aS'DariComm-2009-06-26T09-34-15-812-077'
p2061
aS'DariComm-2009-06-26T09-34-15-812-092'
p2062
aS'DariComm-2009-06-26T09-34-15-812-097'
p2063
aS'DariComm-2009-06-26T10-19-25-484-011'
p2064
aS'DariComm-2009-06-26T10-19-25-484-020'
p2065
aS'DariComm-2009-06-26T10-19-25-484-035'
p2066
aS'DariComm-2009-06-26T10-19-25-484-038'
p2067
aS'DariComm-2009-06-26T10-19-25-484-041'
p2068
aS'DariComm-2009-06-26T10-19-25-484-052'
p2069
aS'DariComm-2009-06-26T10-19-25-484-072'
p2070
aS'eval_logs_live_04_26_29_SRI-4_2010-04-28T08-10-40-432_008'
p2071
aS'eval_logs_live_04_26_29_SRI-4_2010-04-28T08-10-40-432_010'
p2072
aS'eval_logs_live_04_26_29_SRI-4_2010-04-28T08-10-40-432_048'
p2073
aS'eval_logs_live_04_26_29_SRI-4_2010-04-28T08-10-40-432_058'
p2074
aS'eval_logs_live_04_26_29_SRI-4_2010-04-28T08-10-40-432_064'
p2075
aS'eval_logs_live_04_26_29_SRI-4_2010-04-28T08-10-40-432_086'
p2076
aS'eval_logs_live_04_26_29_SRI-4_2010-04-28T08-10-40-432_102'
p2077
aS'eval_logs_live_04_26_29_SRI-4_2010-04-28T08-10-40-432_111'
p2078
aS'eval_logs_live_04_26_29_SRI-4_2010-04-28T08-10-40-432_133'
p2079
aS'eval_logs_live_04_26_29_SRI-4_2010-04-28T08-10-40-432_145'
p2080
aS'eval_logs_live_04_26_29_SRI-4_2010-04-28T08-10-40-432_169'
p2081
aS'eval_logs_live_04_26_29_SRI-4_2010-04-28T08-10-40-432_178'
p2082
aS'eval_logs_live_04_26_29_SRI-4_2010-04-28T08-10-40-432_192'
p2083
aS'eval_logs_live_04_26_29_SRI-4_2010-04-28T08-10-40-432_214'
p2084
aS'eval_logs_live_04_26_29_SRI-4_2010-04-28T08-10-40-432_216'
p2085
aS'eval_logs_live_04_26_29_SRI-4_2010-04-28T08-10-40-432_228'
p2086
aS'eval_logs_live_04_26_29_SRI-4_2010-04-28T08-10-40-432_232'
p2087
aS'eval_logs_live_04_26_29_SRI-4_2010-04-28T08-10-40-432_234'
p2088
aS'eval_logs_live_04_26_29_SRI-4_2010-04-28T08-10-40-432_236'
p2089
aS'eval_logs_live_04_26_29_SRI-4_2010-04-28T08-10-40-432_238'
p2090
aS'eval_logs_live_04_26_29_SRI-4_2010-04-28T08-10-40-432_246'
p2091
aS'eval_logs_live_04_26_29_SRI-4_2010-04-28T08-10-40-432_250'
p2092
aS'eval_logs_live_04_26_29_SRI-4_2010-04-28T10-09-30-322_014'
p2093
aS'eval_logs_live_04_26_29_SRI-4_2010-04-28T10-09-30-322_023'
p2094
aS'eval_logs_live_04_26_29_SRI-4_2010-04-28T10-09-30-322_045'
p2095
aS'eval_logs_live_04_26_29_SRI-4_2010-04-28T10-09-30-322_071'
p2096
aS'eval_logs_live_04_26_29_SRI-4_2010-04-28T10-09-30-322_075'
p2097
aS'eval_logs_live_04_26_29_SRI-4_2010-04-28T10-09-30-322_077'
p2098
aS'eval_logs_live_04_26_29_SRI-4_2010-04-28T10-09-30-322_085'
p2099
aS'eval_logs_live_04_26_29_SRI-4_2010-04-28T10-09-30-322_114'
p2100
aS'eval_logs_live_04_26_29_SRI-4_2010-04-28T10-09-30-322_118'
p2101
aS'eval_logs_live_04_26_29_SRI-4_2010-04-28T10-09-30-322_128'
p2102
aS'eval_logs_live_04_26_29_SRI-4_2010-04-28T10-09-30-322_136'
p2103
aS'eval_logs_live_04_26_29_SRI-4_2010-04-28T10-09-30-322_150'
p2104
aS'eval_logs_live_04_26_29_SRI-4_2010-04-28T10-09-30-322_161'
p2105
aS'eval_logs_live_04_26_29_SRI-4_2010-04-28T10-09-30-322_171'
p2106
aS'eval_logs_live_04_26_29_SRI-4_2010-04-28T10-09-30-322_179'
p2107
aS'eval_logs_live_04_26_29_SRI-4_2010-04-28T10-09-30-322_194'
p2108
aS'eval_logs_live_04_26_29_SRI-4_2010-04-28T10-09-30-322_196'
p2109
aS'eval_logs_live_04_26_29_SRI-4_2010-04-28T10-09-30-322_198'
p2110
aS'eval_logs_live_04_26_29_SRI-4_2010-04-28T11-10-32-815_008'
p2111
aS'eval_logs_live_04_26_29_SRI-4_2010-04-28T11-10-32-815_010'
p2112
aS'eval_logs_live_04_26_29_SRI-4_2010-04-28T11-10-32-815_036'
p2113
aS'eval_logs_live_04_26_29_SRI-4_2010-04-28T11-10-32-815_038'
p2114
aS'eval_logs_live_04_26_29_SRI-4_2010-04-28T11-10-32-815_040'
p2115
aS'eval_logs_live_04_26_29_SRI-4_2010-04-28T11-10-32-815_044'
p2116
aS'eval_logs_live_04_26_29_SRI-4_2010-04-28T11-10-32-815_046'
p2117
aS'eval_logs_live_04_26_29_SRI-4_2010-04-28T11-10-32-815_050'
p2118
aS'eval_logs_live_04_26_29_SRI-4_2010-04-28T11-10-32-815_052'
p2119
aS'eval_logs_live_04_26_29_SRI-4_2010-04-28T11-10-32-815_054'
p2120
aS'eval_logs_live_04_26_29_SRI-4_2010-04-28T11-10-32-815_058'
p2121
aS'eval_logs_live_04_26_29_SRI-4_2010-04-28T11-10-32-815_060'
p2122
aS'eval_logs_live_04_26_29_SRI-4_2010-04-28T13-35-06-667_015'
p2123
aS'eval_logs_live_04_26_29_SRI-4_2010-04-28T13-35-06-667_019'
p2124
aS'eval_logs_live_04_26_29_SRI-4_2010-04-28T13-35-06-667_029'
p2125
aS'eval_logs_live_04_26_29_SRI-4_2010-04-28T13-35-06-667_037'
p2126
aS'eval_logs_live_04_26_29_SRI-4_2010-04-28T13-35-06-667_057'
p2127
aS'eval_logs_live_04_26_29_SRI-4_2010-04-28T13-35-06-667_059'
p2128
aS'eval_logs_live_04_26_29_SRI-4_2010-04-28T13-35-06-667_065'
p2129
aS'eval_logs_live_04_26_29_SRI-4_2010-04-28T13-35-06-667_067'
p2130
aS'eval_logs_live_04_26_29_SRI-4_2010-04-28T13-35-06-667_091'
p2131
aS'eval_logs_live_04_26_29_SRI-4_2010-04-28T13-35-06-667_095'
p2132
aS'eval_logs_live_04_26_29_SRI-4_2010-04-28T14-07-52-432_040'
p2133
aS'eval_logs_live_04_26_29_SRI-4_2010-04-28T14-07-52-432_042'
p2134
aS'eval_logs_live_04_26_29_SRI-4_2010-04-28T14-07-52-432_046'
p2135
aS'eval_logs_live_04_26_29_SRI-4_2010-04-28T14-07-52-432_050'
p2136
aS'eval_logs_live_04_26_29_SRI-4_2010-04-28T14-07-52-432_058'
p2137
aS'eval_logs_live_04_26_29_SRI-4_2010-04-28T14-07-52-432_064'
p2138
aS'eval_logs_live_04_26_29_SRI-4_2010-04-28T14-07-52-432_068'
p2139
a.