ccopy_reg
_reconstructor
p0
(csklearn.linear_model.base
LinearRegression
p1
c__builtin__
object
p2
Ntp3
Rp4
(dp5
S'normalize'
p6
I01
sS'intercept_'
p7
cnumpy.core.multiarray
scalar
p8
(cnumpy
dtype
p9
(S'f8'
p10
I0
I1
tp11
Rp12
(I3
S'<'
p13
NNNI-1
I-1
I0
tp14
bS'\xe7\x9b\xbbo\xc3!\xf2?'
p15
tp16
Rp17
sS'residues_'
p18
cnumpy.core.multiarray
_reconstruct
p19
(cnumpy
ndarray
p20
(I0
tp21
S'b'
p22
tp23
Rp24
(I1
(I0
tp25
g12
I00
S''
p26
tp27
bsS'fit_intercept'
p28
I01
sS'coef_'
p29
g19
(g20
(I0
tp30
g22
tp31
Rp32
(I1
(I5
tp33
g12
I00
S"\x93\x14\x94n\xb1\n\xec\xbf\xbd\xdce\xf8~k\x1d\xc0LP\xa6\x9bM\xe0]\xbd\xf9V\xc18\x96o\x1e@\xd5\xc2\xfe'\xf4\xde\xbe?"
p34
tp35
bsS'copy_X'
p36
I01
sS'rank_'
p37
I4
sS'singular_'
p38
g19
(g20
(I0
tp39
g22
tp40
Rp41
(I1
(I5
tp42
g12
I00
S'~\xf0\x12\x13\xf6\xd1\xfc?Z`\xe4.-$\xe8?h\xe1\xdfB\x19"\xdb?B`\xcc8\xf8\xc3\xb4?=\xc3\xc2>_!f<'
p43
tp44
bsb.