ccopy_reg
_reconstructor
p0
(csklearn.linear_model.base
LinearRegression
p1
c__builtin__
object
p2
Ntp3
Rp4
(dp5
S'normalize'
p6
I01
sS'intercept_'
p7
cnumpy.core.multiarray
scalar
p8
(cnumpy
dtype
p9
(S'f8'
p10
I0
I1
tp11
Rp12
(I3
S'<'
p13
NNNI-1
I-1
I0
tp14
bS'\x1c\x1a\xa7d\x90\x82\x0b@'
p15
tp16
Rp17
sS'residues_'
p18
cnumpy.core.multiarray
_reconstruct
p19
(cnumpy
ndarray
p20
(I0
tp21
S'b'
p22
tp23
Rp24
(I1
(I0
tp25
g12
I00
S''
p26
tp27
bsS'fit_intercept'
p28
I01
sS'coef_'
p29
g19
(g20
(I0
tp30
g22
tp31
Rp32
(I1
(I5
tp33
g12
I00
S'\x87\xb2\xb5\x89|\xcd\x03\xc0\'\x01B\xa4\x12\xf8*\xc0c\xb7\xcal"\xa7\x8d\xbd\x9d\x16yhD\xad+@\x87}\t\x11+\xbc\xa9?'
p34
tp35
bsS'copy_X'
p36
I01
sS'rank_'
p37
I4
sS'singular_'
p38
g19
(g20
(I0
tp39
g22
tp40
Rp41
(I1
(I5
tp42
g12
I00
S'}&~\xbeCK\xfd?\xa9\xe8!\xb5\xe2!\xe8?\xc5\xae\x04\x99\xf9]\xd1?|y\xefQ\xef\x0c\xb3?\xecj\xa5\xd1\xf5\\[<'
p43
tp44
bsb.