ccopy_reg
_reconstructor
p0
(csklearn.linear_model.base
LinearRegression
p1
c__builtin__
object
p2
Ntp3
Rp4
(dp5
S'normalize'
p6
I01
sS'intercept_'
p7
cnumpy.core.multiarray
scalar
p8
(cnumpy
dtype
p9
(S'f8'
p10
I0
I1
tp11
Rp12
(I3
S'<'
p13
NNNI-1
I-1
I0
tp14
bS'\x7f\x04a\xed\xbe\xea\x00@'
p15
tp16
Rp17
sS'residues_'
p18
cnumpy.core.multiarray
_reconstruct
p19
(cnumpy
ndarray
p20
(I0
tp21
S'b'
p22
tp23
Rp24
(I1
(I0
tp25
g12
I00
S''
p26
tp27
bsS'fit_intercept'
p28
I01
sS'coef_'
p29
g19
(g20
(I0
tp30
g22
tp31
Rp32
(I1
(I5
tp33
g12
I00
S"\x1b\xfc\x11\xa7\xc2\xe0\x00\xc09\x85\xe0k\xb7\x86&\xc0,\n-t\xddFg\xbd\xf6\xd7g\x06\xa3\x18'@j\x99`\xbe\x19\x05\xb5?"
p34
tp35
bsS'copy_X'
p36
I01
sS'rank_'
p37
I4
sS'singular_'
p38
g19
(g20
(I0
tp39
g22
tp40
Rp41
(I1
(I5
tp42
g12
I00
S'd0\x9f\xcc\xe4\x1a\xfd?c\x83\xf2\x12\xdb\xce\xe8?G\xac@\xb1i\xa8\xd2?\x84\xaa\xd8\xbdP\x18\xb2?\xbc\xb1\xb2u*\xdbQ<'
p43
tp44
bsb.