(lp0
S'evalTranstac-0707-offline-e001'
p1
aS'evalTranstac-0707-offline-e003'
p2
aS'evalTranstac-0707-offline-e004'
p3
aS'evalTranstac-0707-offline-e005'
p4
aS'evalTranstac-0707-offline-e006'
p5
aS'evalTranstac-0707-offline-e008'
p6
aS'evalTranstac-0707-offline-e011'
p7
aS'evalTranstac-0707-offline-e013'
p8
aS'evalTranstac-0707-offline-e014'
p9
aS'evalTranstac-0707-offline-e015'
p10
aS'evalTranstac-0707-offline-e019'
p11
aS'evalTranstac-0707-offline-e022'
p12
aS'evalTranstac-0707-offline-e023'
p13
aS'evalTranstac-0707-offline-e024'
p14
aS'evalTranstac-0707-offline-e026'
p15
aS'evalTranstac-0707-offline-e027'
p16
aS'evalTranstac-0707-offline-e028'
p17
aS'evalTranstac-0707-offline-e029'
p18
aS'evalTranstac-0707-offline-e030'
p19
aS'evalTranstac-0707-offline-e031'
p20
aS'evalTranstac-0707-offline-e034'
p21
aS'evalTranstac-0707-offline-e035'
p22
aS'evalTranstac-0707-offline-e036'
p23
aS'evalTranstac-0707-offline-e037'
p24
aS'evalTranstac-0707-offline-e046'
p25
aS'evalTranstac-0707-offline-e048'
p26
aS'evalTranstac-0707-offline-e052'
p27
aS'evalTranstac-0707-offline-e058'
p28
aS'evalTranstac-0707-offline-e060'
p29
aS'evalTranstac-0707-offline-e064'
p30
aS'evalTranstac-0707-offline-e065'
p31
aS'evalTranstac-0707-offline-e069'
p32
aS'evalTranstac-0707-offline-e070'
p33
aS'evalTranstac-0707-offline-e075'
p34
aS'evalTranstac-0707-offline-e076'
p35
aS'evalTranstac-0707-offline-e079'
p36
aS'evalTranstac-0707-offline-e084'
p37
aS'evalTranstac-0707-offline-e088'
p38
aS'evalTranstac-0707-offline-e094'
p39
aS'evalTranstac-0707-offline-e096'
p40
aS'evalTranstac-0707-offline-e097'
p41
aS'evalTranstac-0707-offline-e100'
p42
aS'evalTranstac-0707-offline-e102'
p43
aS'evalTranstac-0707-offline-e108'
p44
aS'evalTranstac-0707-offline-e109'
p45
aS'evalTranstac-0707-offline-e110'
p46
aS'evalTranstac-0707-offline-e111'
p47
aS'evalTranstac-0707-offline-e112'
p48
aS'evalTranstac-0707-offline-e115'
p49
aS'evalTranstac-0707-offline-e132'
p50
aS'evalTranstac-0707-offline-e134'
p51
aS'evalTranstac-0707-offline-e137'
p52
aS'evalTranstac-0707-offline-e139'
p53
aS'evalTranstac-0707-offline-e140'
p54
aS'evalTranstac-0707-offline-e143'
p55
aS'evalTranstac-0707-offline-e144'
p56
aS'evalTranstac-0707-offline-e147'
p57
aS'evalTranstac-0707-offline-e148'
p58
aS'evalTranstac-0707-offline-e152'
p59
aS'evalTranstac-0707-offline-e156'
p60
aS'evalTranstac-0707-offline-e158'
p61
aS'evalTranstac-0707-offline-e160'
p62
aS'evalTranstac-0707-offline-e162'
p63
aS'evalTranstac-0707-offline-e163'
p64
aS'evalTranstac-0707-offline-e166'
p65
aS'evalTranstac-0707-offline-e167'
p66
aS'evalTranstac-0707-offline-e168'
p67
aS'evalTranstac-0707-offline-e172'
p68
aS'evalTranstac-0707-offline-e174'
p69
aS'evalTranstac-0707-offline-e182'
p70
aS'evalTranstac-0707-offline-e184'
p71
aS'evalTranstac-0707-offline-e186'
p72
aS'evalTranstac-0707-offline-e187'
p73
aS'evalTranstac-0707-offline-e190'
p74
aS'evalTranstac-0707-offline-e195'
p75
aS'evalTranstac-0707-offline-e197'
p76
aS'evalTranstac-0707-offline-e199'
p77
aS'evalTranstac-0707-offline-e201'
p78
aS'evalTranstac-0707-offline-e203'
p79
aS'evalTranstac-0707-offline-e204'
p80
aS'evalTranstac-0707-offline-e205'
p81
aS'evalTranstac-0707-offline-e209'
p82
aS'evalTranstac-0707-offline-e212'
p83
aS'evalTranstac-0707-offline-e217'
p84
aS'evalTranstac-0707-offline-e220'
p85
aS'evalTranstac-0707-offline-e221'
p86
aS'evalTranstac-0707-offline-e222'
p87
aS'evalTranstac-0707-offline-e223'
p88
aS'evalTranstac-0707-offline-e225'
p89
aS'evalTranstac-0707-offline-e226'
p90
aS'evalTranstac-0707-offline-e228'
p91
aS'evalTranstac-0707-offline-e232'
p92
aS'evalTranstac-0707-offline-e233'
p93
aS'evalTranstac-0707-offline-e239'
p94
aS'evalTranstac-0707-offline-e240'
p95
aS'evalTranstac-0707-offline-e242'
p96
aS'evalTranstac-0707-offline-e248'
p97
aS'evalTranstac-0707-offline-e253'
p98
aS'evalTranstac-0707-offline-e258'
p99
aS'evalTranstac-0707-offline-e260'
p100
aS'evalTranstac-0707-offline-e269'
p101
aS'evalTranstac-0707-offline-e270'
p102
aS'evalTranstac-0707-offline-e271'
p103
aS'evalTranstac-0707-offline-e289'
p104
aS'evalTranstac-0707-offline-e290'
p105
aS'evalTranstac-0707-offline-e291'
p106
aS'evalTranstac-0707-offline-e293'
p107
aS'evalTranstac-0707-offline-e294'
p108
aS'evalTranstac-0707-offline-e298'
p109
aS'evalTranstac-0707-offline-e299'
p110
aS'evalTranstac-0707-offline-e305'
p111
aS'evalTranstac-0707-offline-e314'
p112
aS'evalTranstac-0707-offline-e327'
p113
aS'evalTranstac-0707-offline-e330'
p114
aS'evalTranstac-0707-offline-e338'
p115
aS'evalTranstac-0707-offline-e341'
p116
aS'evalTranstac-0707-offline-e343'
p117
aS'evalTranstac-0707-offline-e345'
p118
aS'evalTranstac-0707-offline-e352'
p119
aS'evalTranstac-0707-offline-e353'
p120
aS'evalTranstac-0707-offline-e356'
p121
aS'evalTranstac-0707-offline-e359'
p122
aS'evalTranstac-0707-offline-e360'
p123
aS'evalTranstac-0707-offline-e362'
p124
aS'evalTranstac-0707-offline-e363'
p125
aS'evalTranstac-0707-offline-e365'
p126
aS'evalTranstac-0707-offline-e368'
p127
aS'evalTranstac-0707-offline-e374'
p128
aS'evalTranstac-0707-offline-e378'
p129
aS'evalTranstac-0707-offline-e382'
p130
aS'evalTranstac-0707-offline-e384'
p131
aS'evalTranstac-0707-offline-e385'
p132
aS'evalTranstac-0707-offline-e409'
p133
aS'evalTranstac-0707-offline-e410'
p134
aS'evalTranstac-0707-offline-e418'
p135
aS'evalTranstac-0707-offline-e420'
p136
aS'evalTranstac-0707-offline-e421'
p137
aS'evalTranstac-0707-offline-e422'
p138
aS'evalTranstac-0707-offline-e423'
p139
aS'evalTranstac-0707-offline-e424'
p140
aS'evalTranstac-0707-offline-e429'
p141
aS'evalTranstac-0707-offline-e430'
p142
aS'evalTranstac-0707-offline-e431'
p143
aS'evalTranstac-0707-offline-e432'
p144
aS'evalTranstac-0707-offline-e434'
p145
aS'evalTranstac-0707-offline-e435'
p146
aS'evalTranstac-0707-offline-e436'
p147
aS'evalTranstac-0707-offline-e437'
p148
aS'evalTranstac-0707-offline-e438'
p149
aS'evalTranstac-0707-offline-e439'
p150
aS'evalTranstac-0707-offline-e442'
p151
aS'evalTranstac-0707-offline-e445'
p152
aS'evalTranstac-0707-offline-e447'
p153
aS'evalTranstac-0707-offline-e450'
p154
aS'evalTranstac-0707-offline-e458'
p155
aS'evalTranstac-0707-offline-e461'
p156
aS'evalTranstac-0707-offline-e463'
p157
aS'evalTranstac-0707-offline-e466'
p158
aS'evalTranstac-0707-offline-e470'
p159
aS'evalTranstac-0707-offline-e472'
p160
aS'evalTranstac-0707-offline-e473'
p161
aS'evalTranstac-0707-offline-e475'
p162
aS'evalTranstac-0707-offline-e476'
p163
aS'evalTranstac-0707-offline-e477'
p164
aS'evalTranstac-0707-offline-e478'
p165
aS'evalTranstac-0707-offline-e481'
p166
aS'evalTranstac-0707-offline-e483'
p167
aS'evalTranstac-0707-offline-e484'
p168
aS'evalTranstac-0707-offline-e485'
p169
aS'evalTranstac-0707-offline-e486'
p170
aS'evalTranstac-0707-offline-e487'
p171
aS'evalTranstac-0707-offline-e488'
p172
aS'evalTranstac-0707-offline-e489'
p173
aS'evalTranstac-0707-offline-e492'
p174
aS'evalTranstac-0707-offline-e493'
p175
aS'evalTranstac-0707-offline-e496'
p176
aS'evalTranstac-0707-offline-e499'
p177
aS'evalTranstac-0707-offline-e501'
p178
aS'evalTranstac-0707-offline-e503'
p179
aS'evalTranstac-0707-offline-e504'
p180
aS'evalTranstac-0707-offline-e506'
p181
aS'evalTranstac-0707-offline-e510'
p182
aS'evalTranstac-0707-offline-e512'
p183
aS'evalTranstac-0707-offline-e513'
p184
aS'evalTranstac-0707-offline-e514'
p185
aS'evalTranstac-0707-offline-e515'
p186
aS'evalTranstac-0707-offline-e518'
p187
aS'evalTranstac-0707-offline-e530'
p188
aS'evalTranstac-0707-offline-e532'
p189
aS'evalTranstac-0707-offline-e537'
p190
aS'evalTranstac-0707-offline-e539'
p191
aS'evalTranstac-0707-offline-e540'
p192
aS'evalTranstac-0707-offline-e541'
p193
aS'evalTranstac-0707-offline-e543'
p194
aS'evalTranstac-0707-offline-e545'
p195
aS'evalTranstac-0707-offline-e546'
p196
aS'evalTranstac-0707-offline-e547'
p197
aS'evalTranstac-0707-offline-e548'
p198
aS'evalTranstac-0707-offline-e549'
p199
aS'evalTranstac-0707-offline-e551'
p200
aS'evalTranstac-0707-offline-e552'
p201
aS'evalTranstac-0707-offline-e560'
p202
aS'evalTranstac-0707-offline-e562'
p203
aS'evalTranstac-0707-offline-e566'
p204
aS'evalTranstac-0707-offline-e567'
p205
aS'evalTranstac-0707-offline-e568'
p206
aS'evalTranstac-0806-open-offline-e102'
p207
aS'evalTranstac-0806-open-offline-e103'
p208
aS'evalTranstac-0806-open-offline-e105'
p209
aS'evalTranstac-0806-open-offline-e107'
p210
aS'evalTranstac-0806-open-offline-e111'
p211
aS'evalTranstac-0806-open-offline-e115'
p212
aS'evalTranstac-0806-open-offline-e130'
p213
aS'evalTranstac-0806-open-offline-e132'
p214
aS'evalTranstac-0806-open-offline-e135'
p215
aS'evalTranstac-0806-open-offline-e137'
p216
aS'evalTranstac-0806-open-offline-e143'
p217
aS'evalTranstac-0806-open-offline-e144'
p218
aS'evalTranstac-0806-open-offline-e145'
p219
aS'evalTranstac-0806-open-offline-e146'
p220
aS'evalTranstac-0806-open-offline-e147'
p221
aS'evalTranstac-0806-open-offline-e151'
p222
aS'evalTranstac-0806-open-offline-e153'
p223
aS'evalTranstac-0806-open-offline-e160'
p224
aS'evalTranstac-0806-open-offline-e163'
p225
aS'evalTranstac-0806-open-offline-e164'
p226
aS'evalTranstac-0806-open-offline-e169'
p227
aS'evalTranstac-0806-open-offline-e170'
p228
aS'evalTranstac-0806-open-offline-e177'
p229
aS'evalTranstac-0806-open-offline-e178'
p230
aS'evalTranstac-0806-open-offline-e180'
p231
aS'evalTranstac-0806-open-offline-e185'
p232
aS'evalTranstac-0806-open-offline-e188'
p233
aS'evalTranstac-0806-open-offline-e189'
p234
aS'evalTranstac-0806-open-offline-e197'
p235
aS'evalTranstac-0806-open-offline-e199'
p236
aS'evalTranstac-0806-open-offline-e204'
p237
aS'evalTranstac-0806-open-offline-e205'
p238
aS'evalTranstac-0806-open-offline-e212'
p239
aS'evalTranstac-0806-open-offline-e232'
p240
aS'evalTranstac-0806-open-offline-e233'
p241
aS'evalTranstac-0806-open-offline-e247'
p242
aS'evalTranstac-0806-open-offline-e25'
p243
aS'evalTranstac-0806-open-offline-e254'
p244
aS'evalTranstac-0806-open-offline-e257'
p245
aS'evalTranstac-0806-open-offline-e259'
p246
aS'evalTranstac-0806-open-offline-e26'
p247
aS'evalTranstac-0806-open-offline-e271'
p248
aS'evalTranstac-0806-open-offline-e273'
p249
aS'evalTranstac-0806-open-offline-e287'
p250
aS'evalTranstac-0806-open-offline-e288'
p251
aS'evalTranstac-0806-open-offline-e294'
p252
aS'evalTranstac-0806-open-offline-e311'
p253
aS'evalTranstac-0806-open-offline-e314'
p254
aS'evalTranstac-0806-open-offline-e321'
p255
aS'evalTranstac-0806-open-offline-e322'
p256
aS'evalTranstac-0806-open-offline-e328'
p257
aS'evalTranstac-0806-open-offline-e330'
p258
aS'evalTranstac-0806-open-offline-e340'
p259
aS'evalTranstac-0806-open-offline-e343'
p260
aS'evalTranstac-0806-open-offline-e355'
p261
aS'evalTranstac-0806-open-offline-e357'
p262
aS'evalTranstac-0806-open-offline-e36'
p263
aS'evalTranstac-0806-open-offline-e369'
p264
aS'evalTranstac-0806-open-offline-e371'
p265
aS'evalTranstac-0806-open-offline-e375'
p266
aS'evalTranstac-0806-open-offline-e377'
p267
aS'evalTranstac-0806-open-offline-e382'
p268
aS'evalTranstac-0806-open-offline-e384'
p269
aS'evalTranstac-0806-open-offline-e385'
p270
aS'evalTranstac-0806-open-offline-e387'
p271
aS'evalTranstac-0806-open-offline-e388'
p272
aS'evalTranstac-0806-open-offline-e39'
p273
aS'evalTranstac-0806-open-offline-e394'
p274
aS'evalTranstac-0806-open-offline-e40'
p275
aS'evalTranstac-0806-open-offline-e405'
p276
aS'evalTranstac-0806-open-offline-e408'
p277
aS'evalTranstac-0806-open-offline-e409'
p278
aS'evalTranstac-0806-open-offline-e412'
p279
aS'evalTranstac-0806-open-offline-e419'
p280
aS'evalTranstac-0806-open-offline-e42'
p281
aS'evalTranstac-0806-open-offline-e421'
p282
aS'evalTranstac-0806-open-offline-e422'
p283
aS'evalTranstac-0806-open-offline-e424'
p284
aS'evalTranstac-0806-open-offline-e430'
p285
aS'evalTranstac-0806-open-offline-e434'
p286
aS'evalTranstac-0806-open-offline-e435'
p287
aS'evalTranstac-0806-open-offline-e439'
p288
aS'evalTranstac-0806-open-offline-e443'
p289
aS'evalTranstac-0806-open-offline-e458'
p290
aS'evalTranstac-0806-open-offline-e472'
p291
aS'evalTranstac-0806-open-offline-e476'
p292
aS'evalTranstac-0806-open-offline-e483'
p293
aS'evalTranstac-0806-open-offline-e484'
p294
aS'evalTranstac-0806-open-offline-e485'
p295
aS'evalTranstac-0806-open-offline-e486'
p296
aS'evalTranstac-0806-open-offline-e487'
p297
aS'evalTranstac-0806-open-offline-e488'
p298
aS'evalTranstac-0806-open-offline-e492'
p299
aS'evalTranstac-0806-open-offline-e493'
p300
aS'evalTranstac-0806-open-offline-e5'
p301
aS'evalTranstac-0806-open-offline-e51'
p302
aS'evalTranstac-0806-open-offline-e513'
p303
aS'evalTranstac-0806-open-offline-e522'
p304
aS'evalTranstac-0806-open-offline-e523'
p305
aS'evalTranstac-0806-open-offline-e525'
p306
aS'evalTranstac-0806-open-offline-e530'
p307
aS'evalTranstac-0806-open-offline-e531'
p308
aS'evalTranstac-0806-open-offline-e535'
p309
aS'evalTranstac-0806-open-offline-e537'
p310
aS'evalTranstac-0806-open-offline-e543'
p311
aS'evalTranstac-0806-open-offline-e555'
p312
aS'evalTranstac-0806-open-offline-e556'
p313
aS'evalTranstac-0806-open-offline-e560'
p314
aS'evalTranstac-0806-open-offline-e596'
p315
aS'evalTranstac-0806-open-offline-e597'
p316
aS'evalTranstac-0806-open-offline-e601'
p317
aS'evalTranstac-0806-open-offline-e602'
p318
aS'evalTranstac-0806-open-offline-e603'
p319
aS'evalTranstac-0806-open-offline-e604'
p320
aS'evalTranstac-0806-open-offline-e605'
p321
aS'evalTranstac-0806-open-offline-e607'
p322
aS'evalTranstac-0806-open-offline-e61'
p323
aS'evalTranstac-0806-open-offline-e610'
p324
aS'evalTranstac-0806-open-offline-e612'
p325
aS'evalTranstac-0806-open-offline-e613'
p326
aS'evalTranstac-0806-open-offline-e614'
p327
aS'evalTranstac-0806-open-offline-e620'
p328
aS'evalTranstac-0806-open-offline-e626'
p329
aS'evalTranstac-0806-open-offline-e628'
p330
aS'evalTranstac-0806-open-offline-e63'
p331
aS'evalTranstac-0806-open-offline-e631'
p332
aS'evalTranstac-0806-open-offline-e632'
p333
aS'evalTranstac-0806-open-offline-e634'
p334
aS'evalTranstac-0806-open-offline-e635'
p335
aS'evalTranstac-0806-open-offline-e641'
p336
aS'evalTranstac-0806-open-offline-e642'
p337
aS'evalTranstac-0806-open-offline-e644'
p338
aS'evalTranstac-0806-open-offline-e646'
p339
aS'evalTranstac-0806-open-offline-e7'
p340
aS'evalTranstac-0806-open-offline-e85'
p341
aS'evalTranstac-0806-open-offline-e89'
p342
aS'evalTranstac-0806-open-offline-e9'
p343
aS'evalTranstac-0806-open-offline-e90'
p344
aS'evalTranstac-0806-open-offline-e92'
p345
aS'evalTranstac-0806-open-offline-e97'
p346
aS'evalTranstac-0806-open-offline-e99'
p347
aS'English^A13_01_001_0001'
p348
aS'English^A13_01_037_0007'
p349
aS'English^A13_01_098_0015'
p350
aS'English^A13_01_100_0016'
p351
aS'English^A13_01_106_0017'
p352
aS'English^A13_01_108_0018'
p353
aS'English^A13_01_126_0021'
p354
aS'English^A13_01_128_0022'
p355
aS'English^A13_01_182_0030'
p356
aS'English^A13_01_189_0031'
p357
aS'English^A13_01_440_0061'
p358
aS'English^A13_01_606_0078'
p359
aS'English^B12_02_021_0079'
p360
aS'English^B12_02_038_0083'
p361
aS'English^B12_02_052_0086'
p362
aS'English^B12_02_071_0088'
p363
aS'English^B12_02_081_0090'
p364
aS'English^B12_02_108_0092'
p365
aS'English^B12_02_132_0095'
p366
aS'English^B12_02_137_0096'
p367
aS'English^B12_02_156_0098'
p368
aS'English^B12_02_180_0099'
p369
aS'English^B12_02_206_0101'
p370
aS'English^B12_02_221_0102'
p371
aS'English^B12_02_247_0104'
p372
aS'English^B12_02_266_0105'
p373
aS'English^B12_02_281_0107'
p374
aS'English^B12_02_285_0108'
p375
aS'English^B12_02_287_0109'
p376
aS'English^B12_02_309_0112'
p377
aS'English^B12_02_325_0115'
p378
aS'English^B12_02_371_0123'
p379
aS'English^B12_02_389_0126'
p380
aS'English^B12_02_397_0128'
p381
aS'English^B12_02_403_0129'
p382
aS'English^B42_03_011_0132'
p383
aS'English^B42_03_030_0136'
p384
aS'English^B42_03_061_0140'
p385
aS'English^B42_03_067_0141'
p386
aS'English^B42_03_069_0142'
p387
aS'English^B42_03_088_0143'
p388
aS'English^B42_03_090_0144'
p389
aS'English^B42_03_102_0146'
p390
aS'English^B42_03_121_0148'
p391
aS'English^B42_03_132_0149'
p392
aS'English^B42_03_177_0155'
p393
aS'English^B42_03_243_0162'
p394
aS'English^B42_03_254_0163'
p395
aS'English^B42_03_256_0164'
p396
aS'English^B42_03_277_0166'
p397
aS'English^B42_03_283_0168'
p398
aS'English^C13_04_006_0171'
p399
aS'English^C13_04_008_0172'
p400
aS'English^C13_04_023_0174'
p401
aS'English^C13_04_036_0176'
p402
aS'English^C13_04_042_0177'
p403
aS'English^C13_04_049_0178'
p404
aS'English^C13_04_062_0180'
p405
aS'English^C13_04_071_0181'
p406
aS'English^C13_04_088_0183'
p407
aS'English^C13_04_094_0184'
p408
aS'English^C13_04_107_0186'
p409
aS'English^C13_04_128_0188'
p410
aS'English^C13_04_150_0191'
p411
aS'English^C13_04_176_0195'
p412
aS'English^C13_04_187_0196'
p413
aS'English^C13_04_193_0197'
p414
aS'English^C13_04_202_0198'
p415
aS'English^C13_04_204_0199'
p416
aS'English^C13_04_213_0200'
p417
aS'English^C13_04_215_0201'
p418
aS'English^C13_04_231_0203'
p419
aS'English^C13_04_235_0204'
p420
aS'English^C13_04_279_0208'
p421
aS'English^C42_05_006_0210'
p422
aS'English^C42_05_033_0214'
p423
aS'English^C42_05_035_0215'
p424
aS'English^C42_05_057_0220'
p425
aS'English^C42_05_065_0223'
p426
aS'English^C42_05_080_0224'
p427
aS'English^C42_05_101_0227'
p428
aS'English^C42_05_160_0235'
p429
aS'English^C42_05_210_0242'
p430
aS'English^C42_05_230_0245'
p431
aS'English^C42_05_243_0246'
p432
aS'English^C42_05_255_0248'
p433
aS'English^C42_05_268_0250'
p434
aS'English^C42_05_323_0257'
p435
aS'English^C42_05_325_0258'
p436
aS'English^D11_06_013_0263'
p437
aS'English^D11_06_049_0268'
p438
aS'English^D11_06_066_0270'
p439
aS'English^D11_06_150_0278'
p440
aS'English^D11_06_173_0282'
p441
aS'English^D11_06_208_0284'
p442
aS'English^D11_06_253_0288'
p443
aS'English^D11_06_321_0294'
p444
aS'English^D11_06_369_0301'
p445
aS'English^D11_06_371_0302'
p446
aS'English^D21_07_007_0307'
p447
aS'English^D21_07_031_0310'
p448
aS'English^D21_07_065_0314'
p449
aS'English^D21_07_179_0325'
p450
aS'English^D21_07_222_0330'
p451
aS'English^D21_07_441_0346'
p452
aS'English^E21_08_017_0351'
p453
aS'English^E21_08_077_0360'
p454
aS'English^E21_08_132_0370'
p455
aS'English^E21_08_197_0378'
p456
aS'English^E21_08_297_0396'
p457
aS'English^E41_09_006_0401'
p458
aS'English^E41_09_046_0406'
p459
aS'English^E41_09_225_0434'
p460
aS'English^E41_09_298_0447'
p461
aS'English^E41_09_322_0450'
p462
aS'English^F11_10_095_0467'
p463
aS'English^F11_10_196_0479'
p464
aS'English^F32_11_033_0497'
p465
aS'English^F32_11_106_0506'
p466
aS'English^F32_11_117_0508'
p467
aS'English^F32_11_142_0510'
p468
aS'English^F32_11_188_0517'
p469
aS'English^F32_11_276_0530'
p470
aS'English^F32_11_367_0544'
p471
aS'English^F32_11_438_0557'
p472
aS'English^F32_11_456_0559'
p473
aS'English^F32_11_462_0560'
p474
aS'English^F32_11_474_0563'
p475
aS'English^F32_11_478_0564'
p476
aS'IraqComm-2007-07-17T06-32-27-031-002'
p477
aS'IraqComm-2007-07-17T06-32-27-031-004'
p478
aS'IraqComm-2007-07-17T06-32-27-031-006'
p479
aS'IraqComm-2007-07-17T06-32-27-031-007'
p480
aS'IraqComm-2007-07-17T06-32-27-031-008'
p481
aS'IraqComm-2007-07-17T06-32-27-031-010'
p482
aS'IraqComm-2007-07-17T06-32-27-031-014'
p483
aS'IraqComm-2007-07-17T06-32-27-031-019'
p484
aS'IraqComm-2007-07-17T06-32-27-031-024'
p485
aS'IraqComm-2007-07-17T06-32-27-031-026'
p486
aS'IraqComm-2007-07-17T06-32-27-031-028'
p487
aS'IraqComm-2007-07-17T06-32-27-031-030'
p488
aS'IraqComm-2007-07-17T06-32-27-031-032'
p489
aS'IraqComm-2007-07-17T06-32-27-031-034'
p490
aS'IraqComm-2007-07-17T06-32-27-031-036'
p491
aS'IraqComm-2007-07-17T06-32-27-031-038'
p492
aS'IraqComm-2007-07-17T06-32-27-031-039'
p493
aS'IraqComm-2007-07-17T06-32-27-031-041'
p494
aS'IraqComm-2007-07-17T06-32-27-031-043'
p495
aS'IraqComm-2007-07-17T06-32-27-031-045'
p496
aS'IraqComm-2007-07-17T06-32-27-031-047'
p497
aS'IraqComm-2007-07-17T06-32-27-031-049'
p498
aS'IraqComm-2007-07-17T06-32-27-031-051'
p499
aS'IraqComm-2007-07-17T06-32-27-031-053'
p500
aS'IraqComm-2007-07-17T06-32-27-031-055'
p501
aS'IraqComm-2007-07-17T06-32-27-031-061'
p502
aS'IraqComm-2007-07-17T06-32-27-031-065'
p503
aS'IraqComm-2007-07-17T06-32-27-031-067'
p504
aS'IraqComm-2007-07-17T06-32-27-031-069'
p505
aS'IraqComm-2007-07-17T06-32-27-031-071'
p506
aS'IraqComm-2007-07-17T06-32-27-031-073'
p507
aS'IraqComm-2007-07-17T06-32-27-031-077'
p508
aS'IraqComm-2007-07-17T06-32-27-031-079'
p509
aS'IraqComm-2007-07-17T06-32-27-031-081'
p510
aS'IraqComm-2007-07-17T06-32-27-031-083'
p511
aS'IraqComm-2007-07-17T06-50-53-531-001'
p512
aS'IraqComm-2007-07-17T06-50-53-531-003'
p513
aS'IraqComm-2007-07-17T06-50-53-531-005'
p514
aS'IraqComm-2007-07-17T06-50-53-531-006'
p515
aS'IraqComm-2007-07-17T06-50-53-531-008'
p516
aS'IraqComm-2007-07-17T06-50-53-531-012'
p517
aS'IraqComm-2007-07-17T06-50-53-531-014'
p518
aS'IraqComm-2007-07-17T06-50-53-531-016'
p519
aS'IraqComm-2007-07-17T06-50-53-531-021'
p520
aS'IraqComm-2007-07-17T06-50-53-531-023'
p521
aS'IraqComm-2007-07-17T06-50-53-531-025'
p522
aS'IraqComm-2007-07-17T06-50-53-531-027'
p523
aS'IraqComm-2007-07-17T06-50-53-531-029'
p524
aS'IraqComm-2007-07-17T06-50-53-531-031'
p525
aS'IraqComm-2007-07-17T06-50-53-531-033'
p526
aS'IraqComm-2007-07-17T06-50-53-531-037'
p527
aS'IraqComm-2007-07-17T06-50-53-531-039'
p528
aS'IraqComm-2007-07-17T06-50-53-531-041'
p529
aS'IraqComm-2007-07-17T06-50-53-531-043'
p530
aS'IraqComm-2007-07-17T06-50-53-531-045'
p531
aS'IraqComm-2007-07-17T06-50-53-531-047'
p532
aS'IraqComm-2007-07-17T06-50-53-531-049'
p533
aS'IraqComm-2007-07-17T06-50-53-531-051'
p534
aS'IraqComm-2007-07-17T06-50-53-531-053'
p535
aS'IraqComm-2007-07-17T06-50-53-531-055'
p536
aS'IraqComm-2007-07-17T06-50-53-531-057'
p537
aS'IraqComm-2007-07-17T06-50-53-531-059'
p538
aS'IraqComm-2007-07-17T06-50-53-531-061'
p539
aS'IraqComm-2007-07-17T06-50-53-531-063'
p540
aS'IraqComm-2007-07-17T06-50-53-531-065'
p541
aS'IraqComm-2007-07-17T06-50-53-531-067'
p542
aS'IraqComm-2007-07-17T06-50-53-531-070'
p543
aS'IraqComm-2007-07-17T06-50-53-531-072'
p544
aS'IraqComm-2007-07-17T06-50-53-531-082'
p545
aS'IraqComm-2007-07-17T06-50-53-531-084'
p546
aS'IraqComm-2007-07-17T06-50-53-531-086'
p547
aS'IraqComm-2007-07-17T07-07-42-500-001'
p548
aS'IraqComm-2007-07-17T07-07-42-500-003'
p549
aS'IraqComm-2007-07-17T07-07-42-500-005'
p550
aS'IraqComm-2007-07-17T07-07-42-500-006'
p551
aS'IraqComm-2007-07-17T07-07-42-500-007'
p552
aS'IraqComm-2007-07-17T07-07-42-500-008'
p553
aS'IraqComm-2007-07-17T07-07-42-500-009'
p554
aS'IraqComm-2007-07-17T07-07-42-500-010'
p555
aS'IraqComm-2007-07-17T07-07-42-500-012'
p556
aS'IraqComm-2007-07-17T07-07-42-500-014'
p557
aS'IraqComm-2007-07-17T07-07-42-500-016'
p558
aS'IraqComm-2007-07-17T07-07-42-500-018'
p559
aS'IraqComm-2007-07-17T07-07-42-500-020'
p560
aS'IraqComm-2007-07-17T07-07-42-500-022'
p561
aS'IraqComm-2007-07-17T07-07-42-500-024'
p562
aS'IraqComm-2007-07-17T07-07-42-500-026'
p563
aS'IraqComm-2007-07-17T07-07-42-500-028'
p564
aS'IraqComm-2007-07-17T07-07-42-500-030'
p565
aS'IraqComm-2007-07-17T07-07-42-500-032'
p566
aS'IraqComm-2007-07-17T07-07-42-500-034'
p567
aS'IraqComm-2007-07-17T07-07-42-500-036'
p568
aS'IraqComm-2007-07-17T07-07-42-500-038'
p569
aS'IraqComm-2007-07-17T07-07-42-500-040'
p570
aS'IraqComm-2007-07-17T07-07-42-500-046'
p571
aS'IraqComm-2007-07-17T07-07-42-500-048'
p572
aS'IraqComm-2007-07-17T07-07-42-500-050'
p573
aS'IraqComm-2007-07-17T07-07-42-500-052'
p574
aS'IraqComm-2007-07-17T07-07-42-500-056'
p575
aS'IraqComm-2007-07-17T07-07-42-500-058'
p576
aS'IraqComm-2007-07-17T07-07-42-500-060'
p577
aS'IraqComm-2007-07-17T07-07-42-500-062'
p578
aS'IraqComm-2007-07-17T07-07-42-500-064'
p579
aS'IraqComm-2007-07-17T07-07-42-500-066'
p580
aS'IraqComm-2007-07-17T07-07-42-500-068'
p581
aS'IraqComm-2007-07-17T07-07-42-500-070'
p582
aS'IraqComm-2007-07-17T07-07-42-500-072'
p583
aS'IraqComm-2007-07-17T07-07-42-500-074'
p584
aS'IraqComm-2007-07-17T07-07-42-500-075'
p585
aS'IraqComm-2007-07-17T07-07-42-500-077'
p586
aS'IraqComm-2007-07-17T07-07-42-500-079'
p587
aS'IraqComm-2007-07-17T07-07-42-500-083'
p588
aS'IraqComm-2007-07-17T07-07-42-500-085'
p589
aS'IraqComm-2007-07-17T07-25-16-765-001'
p590
aS'IraqComm-2007-07-17T07-25-16-765-003'
p591
aS'IraqComm-2007-07-17T07-25-16-765-005'
p592
aS'IraqComm-2007-07-17T07-25-16-765-006'
p593
aS'IraqComm-2007-07-17T07-25-16-765-008'
p594
aS'IraqComm-2007-07-17T07-25-16-765-010'
p595
aS'IraqComm-2007-07-17T07-25-16-765-012'
p596
aS'IraqComm-2007-07-17T07-25-16-765-014'
p597
aS'IraqComm-2007-07-17T07-25-16-765-016'
p598
aS'IraqComm-2007-07-17T07-25-16-765-020'
p599
aS'IraqComm-2007-07-17T07-25-16-765-022'
p600
aS'IraqComm-2007-07-17T07-25-16-765-024'
p601
aS'IraqComm-2007-07-17T07-25-16-765-030'
p602
aS'IraqComm-2007-07-17T07-25-16-765-032'
p603
aS'IraqComm-2007-07-17T07-25-16-765-034'
p604
aS'IraqComm-2007-07-17T07-25-16-765-036'
p605
aS'IraqComm-2007-07-17T07-25-16-765-038'
p606
aS'IraqComm-2007-07-17T07-25-16-765-042'
p607
aS'IraqComm-2007-07-17T07-25-16-765-044'
p608
aS'IraqComm-2007-07-17T07-25-16-765-046'
p609
aS'IraqComm-2007-07-17T07-25-16-765-048'
p610
aS'IraqComm-2007-07-17T07-25-16-765-050'
p611
aS'IraqComm-2007-07-17T07-25-16-765-052'
p612
aS'IraqComm-2007-07-17T07-25-16-765-054'
p613
aS'IraqComm-2007-07-17T07-25-16-765-058'
p614
aS'IraqComm-2007-07-17T07-25-16-765-060'
p615
aS'IraqComm-2007-07-17T07-25-16-765-062'
p616
aS'IraqComm-2007-07-17T07-25-16-765-064'
p617
aS'IraqComm-2007-07-17T07-25-16-765-066'
p618
aS'IraqComm-2007-07-17T07-42-28-703-001'
p619
aS'IraqComm-2007-07-17T07-42-28-703-003'
p620
aS'IraqComm-2007-07-17T07-42-28-703-005'
p621
aS'IraqComm-2007-07-17T07-42-28-703-007'
p622
aS'IraqComm-2007-07-17T07-42-28-703-009'
p623
aS'IraqComm-2007-07-17T07-42-28-703-012'
p624
aS'IraqComm-2007-07-17T07-42-28-703-014'
p625
aS'IraqComm-2007-07-17T07-42-28-703-016'
p626
aS'IraqComm-2007-07-17T07-42-28-703-018'
p627
aS'IraqComm-2007-07-17T07-42-28-703-020'
p628
aS'IraqComm-2007-07-17T07-42-28-703-022'
p629
aS'IraqComm-2007-07-17T07-42-28-703-024'
p630
aS'IraqComm-2007-07-17T07-42-28-703-026'
p631
aS'IraqComm-2007-07-17T07-42-28-703-028'
p632
aS'IraqComm-2007-07-17T07-42-28-703-030'
p633
aS'IraqComm-2007-07-17T07-42-28-703-032'
p634
aS'IraqComm-2007-07-17T07-42-28-703-034'
p635
aS'IraqComm-2007-07-17T07-42-28-703-036'
p636
aS'IraqComm-2007-07-17T07-42-28-703-038'
p637
aS'IraqComm-2007-07-17T07-42-28-703-040'
p638
aS'IraqComm-2007-07-17T07-42-28-703-042'
p639
aS'IraqComm-2007-07-17T07-42-28-703-044'
p640
aS'IraqComm-2007-07-17T07-42-28-703-046'
p641
aS'IraqComm-2007-07-17T07-42-28-703-048'
p642
aS'IraqComm-2007-07-17T07-42-28-703-051'
p643
aS'IraqComm-2007-07-17T07-42-28-703-053'
p644
aS'IraqComm-2007-07-17T07-42-28-703-055'
p645
aS'IraqComm-2007-07-17T07-42-28-703-057'
p646
aS'IraqComm-2007-07-17T07-42-28-703-059'
p647
aS'IraqComm-2007-07-17T07-42-28-703-061'
p648
aS'IraqComm-2007-07-17T07-42-28-703-063'
p649
aS'IraqComm-2007-07-17T07-42-28-703-065'
p650
aS'IraqComm-2007-07-17T07-42-28-703-067'
p651
aS'IraqComm-2007-07-17T07-42-28-703-069'
p652
aS'IraqComm-2007-07-17T07-42-28-703-071'
p653
aS'IraqComm-2007-07-17T07-42-28-703-075'
p654
aS'IraqComm-2007-07-17T07-42-28-703-078'
p655
aS'IraqComm-2007-07-17T07-59-11-125-001'
p656
aS'IraqComm-2007-07-17T07-59-11-125-003'
p657
aS'IraqComm-2007-07-17T07-59-11-125-004'
p658
aS'IraqComm-2007-07-17T07-59-11-125-008'
p659
aS'IraqComm-2007-07-17T07-59-11-125-010'
p660
aS'IraqComm-2007-07-17T07-59-11-125-012'
p661
aS'IraqComm-2007-07-17T07-59-11-125-014'
p662
aS'IraqComm-2007-07-17T07-59-11-125-017'
p663
aS'IraqComm-2007-07-17T07-59-11-125-019'
p664
aS'IraqComm-2007-07-17T07-59-11-125-021'
p665
aS'IraqComm-2007-07-17T07-59-11-125-024'
p666
aS'IraqComm-2007-07-17T07-59-11-125-026'
p667
aS'IraqComm-2007-07-17T07-59-11-125-028'
p668
aS'IraqComm-2007-07-17T07-59-11-125-031'
p669
aS'IraqComm-2007-07-17T07-59-11-125-033'
p670
aS'IraqComm-2007-07-17T07-59-11-125-037'
p671
aS'IraqComm-2007-07-17T07-59-11-125-039'
p672
aS'IraqComm-2007-07-17T07-59-11-125-041'
p673
aS'IraqComm-2007-07-17T07-59-11-125-042'
p674
aS'IraqComm-2007-07-17T07-59-11-125-044'
p675
aS'IraqComm-2007-07-17T07-59-11-125-046'
p676
aS'IraqComm-2007-07-17T07-59-11-125-048'
p677
aS'IraqComm-2007-07-17T07-59-11-125-050'
p678
aS'IraqComm-2007-07-17T07-59-11-125-052'
p679
aS'IraqComm-2007-07-17T07-59-11-125-054'
p680
aS'IraqComm-2007-07-17T07-59-11-125-056'
p681
aS'IraqComm-2007-07-17T07-59-11-125-058'
p682
aS'IraqComm-2007-07-17T07-59-11-125-060'
p683
aS'IraqComm-2007-07-17T07-59-11-125-062'
p684
aS'IraqComm-2007-07-17T07-59-11-125-064'
p685
aS'IraqComm-2007-07-17T07-59-11-125-066'
p686
aS'IraqComm-2007-07-17T07-59-11-125-068'
p687
aS'IraqComm-2007-07-17T07-59-11-125-072'
p688
aS'IraqComm-2007-07-17T07-59-11-125-077'
p689
aS'IraqComm-2007-07-17T07-59-11-125-079'
p690
aS'IraqComm-2007-07-17T07-59-11-125-081'
p691
aS'IraqComm-2007-07-17T07-59-11-125-083'
p692
aS'IraqComm-2007-07-17T07-59-11-125-086'
p693
aS'IraqComm-2007-07-17T07-59-11-125-088'
p694
aS'IraqComm-2007-07-17T08-15-31-953-002'
p695
aS'IraqComm-2007-07-17T08-15-31-953-006'
p696
aS'IraqComm-2007-07-17T08-15-31-953-007'
p697
aS'IraqComm-2007-07-17T08-15-31-953-009'
p698
aS'IraqComm-2007-07-17T08-15-31-953-011'
p699
aS'IraqComm-2007-07-17T08-15-31-953-013'
p700
aS'IraqComm-2007-07-17T08-15-31-953-015'
p701
aS'IraqComm-2007-07-17T08-15-31-953-017'
p702
aS'IraqComm-2007-07-17T08-15-31-953-019'
p703
aS'IraqComm-2007-07-17T08-15-31-953-021'
p704
aS'IraqComm-2007-07-17T08-15-31-953-023'
p705
aS'IraqComm-2007-07-17T08-15-31-953-025'
p706
aS'IraqComm-2007-07-17T08-15-31-953-029'
p707
aS'IraqComm-2007-07-17T08-15-31-953-031'
p708
aS'IraqComm-2007-07-17T08-15-31-953-033'
p709
aS'IraqComm-2007-07-17T08-15-31-953-035'
p710
aS'IraqComm-2007-07-17T08-15-31-953-037'
p711
aS'IraqComm-2007-07-17T08-15-31-953-039'
p712
aS'IraqComm-2007-07-17T08-15-31-953-041'
p713
aS'IraqComm-2007-07-17T08-15-31-953-043'
p714
aS'IraqComm-2007-07-17T08-15-31-953-051'
p715
aS'IraqComm-2007-07-17T08-15-31-953-053'
p716
aS'IraqComm-2007-07-17T08-15-31-953-055'
p717
aS'IraqComm-2007-07-17T08-15-31-953-057'
p718
aS'IraqComm-2007-07-17T08-15-31-953-061'
p719
aS'IraqComm-2007-07-17T08-15-31-953-063'
p720
aS'IraqComm-2007-07-17T08-15-31-953-065'
p721
aS'IraqComm-2007-07-17T08-15-31-953-066'
p722
aS'IraqComm-2007-07-17T08-15-31-953-068'
p723
aS'IraqComm-2007-07-17T08-15-31-953-070'
p724
aS'IraqComm-2007-07-17T08-15-31-953-072'
p725
aS'IraqComm-2007-07-17T08-15-31-953-074'
p726
aS'IraqComm-2007-07-17T08-15-31-953-076'
p727
aS'IraqComm-2007-07-17T08-15-31-953-078'
p728
aS'IraqComm-2007-07-17T08-15-31-953-080'
p729
aS'IraqComm-2007-07-17T08-37-41-531-001'
p730
aS'IraqComm-2007-07-17T08-37-41-531-003'
p731
aS'IraqComm-2007-07-17T08-37-41-531-006'
p732
aS'IraqComm-2007-07-17T08-37-41-531-007'
p733
aS'IraqComm-2007-07-17T08-37-41-531-009'
p734
aS'IraqComm-2007-07-17T08-37-41-531-011'
p735
aS'IraqComm-2007-07-17T08-37-41-531-015'
p736
aS'IraqComm-2007-07-17T08-37-41-531-017'
p737
aS'IraqComm-2007-07-17T08-37-41-531-019'
p738
aS'IraqComm-2007-07-17T08-37-41-531-021'
p739
aS'IraqComm-2007-07-17T08-37-41-531-023'
p740
aS'IraqComm-2007-07-17T08-37-41-531-025'
p741
aS'IraqComm-2007-07-17T08-37-41-531-029'
p742
aS'IraqComm-2007-07-17T08-37-41-531-031'
p743
aS'IraqComm-2007-07-17T08-37-41-531-035'
p744
aS'IraqComm-2007-07-17T08-37-41-531-037'
p745
aS'IraqComm-2007-07-17T08-37-41-531-039'
p746
aS'IraqComm-2007-07-17T08-37-41-531-041'
p747
aS'IraqComm-2007-07-17T08-37-41-531-043'
p748
aS'IraqComm-2007-07-17T08-37-41-531-047'
p749
aS'IraqComm-2007-07-17T08-37-41-531-049'
p750
aS'IraqComm-2007-07-17T08-37-41-531-051'
p751
aS'IraqComm-2007-07-17T08-37-41-531-053'
p752
aS'IraqComm-2007-07-17T08-37-41-531-055'
p753
aS'IraqComm-2007-07-17T08-37-41-531-057'
p754
aS'IraqComm-2007-07-17T08-37-41-531-059'
p755
aS'IraqComm-2007-07-17T08-37-41-531-061'
p756
aS'IraqComm-2007-07-17T08-37-41-531-063'
p757
aS'IraqComm-2007-07-17T08-37-41-531-065'
p758
aS'IraqComm-2007-07-17T09-56-04-765-002'
p759
aS'IraqComm-2007-07-17T09-56-04-765-004'
p760
aS'IraqComm-2007-07-17T09-56-04-765-005'
p761
aS'IraqComm-2007-07-17T09-56-04-765-007'
p762
aS'IraqComm-2007-07-17T09-56-04-765-009'
p763
aS'IraqComm-2007-07-17T09-56-04-765-011'
p764
aS'IraqComm-2007-07-17T09-56-04-765-013'
p765
aS'IraqComm-2007-07-17T09-56-04-765-019'
p766
aS'IraqComm-2007-07-17T09-56-04-765-021'
p767
aS'IraqComm-2007-07-17T09-56-04-765-023'
p768
aS'IraqComm-2007-07-17T09-56-04-765-027'
p769
aS'IraqComm-2007-07-17T09-56-04-765-029'
p770
aS'IraqComm-2007-07-17T09-56-04-765-031'
p771
aS'IraqComm-2007-07-17T09-56-04-765-034'
p772
aS'IraqComm-2007-07-17T09-56-04-765-038'
p773
aS'IraqComm-2007-07-17T09-56-04-765-040'
p774
aS'IraqComm-2007-07-17T09-56-04-765-042'
p775
aS'IraqComm-2007-07-17T09-56-04-765-044'
p776
aS'IraqComm-2007-07-17T09-56-04-765-046'
p777
aS'IraqComm-2007-07-17T09-56-04-765-048'
p778
aS'IraqComm-2007-07-17T09-56-04-765-050'
p779
aS'IraqComm-2007-07-17T09-56-04-765-056'
p780
aS'IraqComm-2007-07-17T09-56-04-765-058'
p781
aS'IraqComm-2007-07-17T09-56-04-765-060'
p782
aS'IraqComm-2007-07-17T09-56-04-765-062'
p783
aS'IraqComm-2007-07-17T09-56-04-765-064'
p784
aS'IraqComm-2007-07-17T09-56-04-765-068'
p785
aS'IraqComm-2007-07-17T09-56-04-765-070'
p786
aS'IraqComm-2007-07-17T09-56-04-765-072'
p787
aS'IraqComm-2007-07-17T09-56-04-765-074'
p788
aS'IraqComm-2007-07-17T10-16-14-843-001'
p789
aS'IraqComm-2007-07-17T10-16-14-843-005'
p790
aS'IraqComm-2007-07-17T10-16-14-843-009'
p791
aS'IraqComm-2007-07-17T10-16-14-843-011'
p792
aS'IraqComm-2007-07-17T10-16-14-843-015'
p793
aS'IraqComm-2007-07-17T10-16-14-843-017'
p794
aS'IraqComm-2007-07-17T10-16-14-843-019'
p795
aS'IraqComm-2007-07-17T10-16-14-843-021'
p796
aS'IraqComm-2007-07-17T10-16-14-843-023'
p797
aS'IraqComm-2007-07-17T10-16-14-843-025'
p798
aS'IraqComm-2007-07-17T10-16-14-843-027'
p799
aS'IraqComm-2007-07-17T10-16-14-843-029'
p800
aS'IraqComm-2007-07-17T10-16-14-843-031'
p801
aS'IraqComm-2007-07-17T10-16-14-843-033'
p802
aS'IraqComm-2007-07-17T10-16-14-843-035'
p803
aS'IraqComm-2007-07-17T10-16-14-843-037'
p804
aS'IraqComm-2007-07-17T10-16-14-843-039'
p805
aS'IraqComm-2007-07-17T10-16-14-843-041'
p806
aS'IraqComm-2007-07-17T10-16-14-843-043'
p807
aS'IraqComm-2007-07-17T10-16-14-843-045'
p808
aS'IraqComm-2007-07-17T10-16-14-843-047'
p809
aS'IraqComm-2007-07-17T10-16-14-843-049'
p810
aS'IraqComm-2007-07-17T10-16-14-843-051'
p811
aS'IraqComm-2007-07-17T10-16-14-843-053'
p812
aS'IraqComm-2007-07-17T10-16-14-843-057'
p813
aS'IraqComm-2007-07-17T10-16-14-843-059'
p814
aS'IraqComm-2007-07-17T10-16-14-843-061'
p815
aS'IraqComm-2007-07-17T10-16-14-843-063'
p816
aS'IraqComm-2007-07-17T10-16-14-843-065'
p817
aS'IraqComm-2007-07-17T10-16-14-843-067'
p818
aS'IraqComm-2007-07-17T10-16-14-843-069'
p819
aS'IraqComm-2007-07-17T10-16-14-843-071'
p820
aS'IraqComm-2007-07-17T10-16-14-843-073'
p821
aS'IraqComm-2007-07-17T10-16-14-843-075'
p822
aS'IraqComm-2007-07-17T10-16-14-843-077'
p823
aS'IraqComm-2007-07-17T10-16-14-843-079'
p824
aS'IraqComm-2007-07-17T10-16-14-843-081'
p825
aS'IraqComm-2007-07-17T10-16-14-843-083'
p826
aS'IraqComm-2007-07-18T06-46-36-000-002'
p827
aS'IraqComm-2007-07-18T06-46-36-000-003'
p828
aS'IraqComm-2007-07-18T06-46-36-000-005'
p829
aS'IraqComm-2007-07-18T06-46-36-000-007'
p830
aS'IraqComm-2007-07-18T06-46-36-000-008'
p831
aS'IraqComm-2007-07-18T06-46-36-000-009'
p832
aS'IraqComm-2007-07-18T06-46-36-000-010'
p833
aS'IraqComm-2007-07-18T06-46-36-000-011'
p834
aS'IraqComm-2007-07-18T06-46-36-000-013'
p835
aS'IraqComm-2007-07-18T06-46-36-000-015'
p836
aS'IraqComm-2007-07-18T06-46-36-000-017'
p837
aS'IraqComm-2007-07-18T06-46-36-000-020'
p838
aS'IraqComm-2007-07-18T06-46-36-000-022'
p839
aS'IraqComm-2007-07-18T06-46-36-000-024'
p840
aS'IraqComm-2007-07-18T06-46-36-000-030'
p841
aS'IraqComm-2007-07-18T06-46-36-000-032'
p842
aS'IraqComm-2007-07-18T06-46-36-000-034'
p843
aS'IraqComm-2007-07-18T06-46-36-000-036'
p844
aS'IraqComm-2007-07-18T06-46-36-000-038'
p845
aS'IraqComm-2007-07-18T06-46-36-000-040'
p846
aS'IraqComm-2007-07-18T06-46-36-000-046'
p847
aS'IraqComm-2007-07-18T06-46-36-000-049'
p848
aS'IraqComm-2007-07-18T06-46-36-000-050'
p849
aS'IraqComm-2007-07-18T06-46-36-000-052'
p850
aS'IraqComm-2007-07-18T06-46-36-000-054'
p851
aS'IraqComm-2007-07-18T06-46-36-000-056'
p852
aS'IraqComm-2007-07-18T06-46-36-000-058'
p853
aS'IraqComm-2007-07-18T06-46-36-000-068'
p854
aS'IraqComm-2007-07-18T06-46-36-000-070'
p855
aS'IraqComm-2007-07-18T06-46-36-000-071'
p856
aS'IraqComm-2007-07-18T06-46-36-000-073'
p857
aS'IraqComm-2007-07-18T06-46-36-000-075'
p858
aS'IraqComm-2007-07-18T06-46-36-000-077'
p859
aS'IraqComm-2007-07-18T06-46-36-000-078'
p860
aS'IraqComm-2007-07-18T06-46-36-000-080'
p861
aS'IraqComm-2007-07-18T07-06-12-812-003'
p862
aS'IraqComm-2007-07-18T07-06-12-812-005'
p863
aS'IraqComm-2007-07-18T07-06-12-812-006'
p864
aS'IraqComm-2007-07-18T07-06-12-812-008'
p865
aS'IraqComm-2007-07-18T07-06-12-812-010'
p866
aS'IraqComm-2007-07-18T07-06-12-812-012'
p867
aS'IraqComm-2007-07-18T07-06-12-812-013'
p868
aS'IraqComm-2007-07-18T07-06-12-812-015'
p869
aS'IraqComm-2007-07-18T07-06-12-812-017'
p870
aS'IraqComm-2007-07-18T07-06-12-812-020'
p871
aS'IraqComm-2007-07-18T07-06-12-812-022'
p872
aS'IraqComm-2007-07-18T07-06-12-812-024'
p873
aS'IraqComm-2007-07-18T07-06-12-812-025'
p874
aS'IraqComm-2007-07-18T07-06-12-812-027'
p875
aS'IraqComm-2007-07-18T07-06-12-812-028'
p876
aS'IraqComm-2007-07-18T07-06-12-812-030'
p877
aS'IraqComm-2007-07-18T07-06-12-812-032'
p878
aS'IraqComm-2007-07-18T07-06-12-812-034'
p879
aS'IraqComm-2007-07-18T07-06-12-812-036'
p880
aS'IraqComm-2007-07-18T07-06-12-812-038'
p881
aS'IraqComm-2007-07-18T07-06-12-812-042'
p882
aS'IraqComm-2007-07-18T07-06-12-812-044'
p883
aS'IraqComm-2007-07-18T07-06-12-812-054'
p884
aS'IraqComm-2007-07-18T07-06-12-812-060'
p885
aS'IraqComm-2007-07-18T07-06-12-812-062'
p886
aS'IraqComm-2007-07-18T07-06-12-812-063'
p887
aS'IraqComm-2007-07-18T07-06-12-812-065'
p888
aS'IraqComm-2007-07-18T07-06-12-812-066'
p889
aS'IraqComm-2007-07-18T07-24-30-859-003'
p890
aS'IraqComm-2007-07-18T07-24-30-859-005'
p891
aS'IraqComm-2007-07-18T07-24-30-859-006'
p892
aS'IraqComm-2007-07-18T07-24-30-859-011'
p893
aS'IraqComm-2007-07-18T07-24-30-859-013'
p894
aS'IraqComm-2007-07-18T07-24-30-859-015'
p895
aS'IraqComm-2007-07-18T07-24-30-859-016'
p896
aS'IraqComm-2007-07-18T07-24-30-859-018'
p897
aS'IraqComm-2007-07-18T07-24-30-859-019'
p898
aS'IraqComm-2007-07-18T07-24-30-859-021'
p899
aS'IraqComm-2007-07-18T07-24-30-859-022'
p900
aS'IraqComm-2007-07-18T07-24-30-859-024'
p901
aS'IraqComm-2007-07-18T07-24-30-859-026'
p902
aS'IraqComm-2007-07-18T07-24-30-859-029'
p903
aS'IraqComm-2007-07-18T07-24-30-859-030'
p904
aS'IraqComm-2007-07-18T07-24-30-859-032'
p905
aS'IraqComm-2007-07-18T07-24-30-859-034'
p906
aS'IraqComm-2007-07-18T07-24-30-859-036'
p907
aS'IraqComm-2007-07-18T07-24-30-859-038'
p908
aS'IraqComm-2007-07-18T07-24-30-859-040'
p909
aS'IraqComm-2007-07-18T07-24-30-859-042'
p910
aS'IraqComm-2007-07-18T07-24-30-859-044'
p911
aS'IraqComm-2007-07-18T07-24-30-859-047'
p912
aS'IraqComm-2007-07-18T07-24-30-859-058'
p913
aS'IraqComm-2007-07-18T07-24-30-859-063'
p914
aS'IraqComm-2007-07-18T07-24-30-859-064'
p915
aS'IraqComm-2007-07-18T07-24-30-859-065'
p916
aS'IraqComm-2007-07-18T07-24-30-859-068'
p917
aS'IraqComm-2007-07-18T07-24-30-859-070'
p918
aS'IraqComm-2007-07-18T07-42-59-421-003'
p919
aS'IraqComm-2007-07-18T07-42-59-421-005'
p920
aS'IraqComm-2007-07-18T07-42-59-421-007'
p921
aS'IraqComm-2007-07-18T07-42-59-421-008'
p922
aS'IraqComm-2007-07-18T07-42-59-421-010'
p923
aS'IraqComm-2007-07-18T07-42-59-421-012'
p924
aS'IraqComm-2007-07-18T07-42-59-421-014'
p925
aS'IraqComm-2007-07-18T07-42-59-421-017'
p926
aS'IraqComm-2007-07-18T07-42-59-421-019'
p927
aS'IraqComm-2007-07-18T07-42-59-421-022'
p928
aS'IraqComm-2007-07-18T07-42-59-421-023'
p929
aS'IraqComm-2007-07-18T07-42-59-421-025'
p930
aS'IraqComm-2007-07-18T07-42-59-421-027'
p931
aS'IraqComm-2007-07-18T07-42-59-421-029'
p932
aS'IraqComm-2007-07-18T07-42-59-421-038'
p933
aS'IraqComm-2007-07-18T07-42-59-421-039'
p934
aS'IraqComm-2007-07-18T07-42-59-421-041'
p935
aS'IraqComm-2007-07-18T07-42-59-421-043'
p936
aS'IraqComm-2007-07-18T07-42-59-421-045'
p937
aS'IraqComm-2007-07-18T07-42-59-421-048'
p938
aS'IraqComm-2007-07-18T07-42-59-421-051'
p939
aS'IraqComm-2007-07-18T07-42-59-421-053'
p940
aS'IraqComm-2007-07-18T07-42-59-421-055'
p941
aS'IraqComm-2007-07-18T07-42-59-421-057'
p942
aS'IraqComm-2007-07-18T07-42-59-421-058'
p943
aS'IraqComm-2007-07-18T07-42-59-421-060'
p944
aS'IraqComm-2007-07-18T07-42-59-421-064'
p945
aS'IraqComm-2007-07-18T07-42-59-421-066'
p946
aS'IraqComm-2007-07-18T07-42-59-421-067'
p947
aS'IraqComm-2007-07-18T07-42-59-421-068'
p948
aS'IraqComm-2007-07-18T07-42-59-421-070'
p949
aS'IraqComm-2007-07-18T07-42-59-421-072'
p950
aS'IraqComm-2007-07-18T07-42-59-421-074'
p951
aS'IraqComm-2007-07-18T07-42-59-421-076'
p952
aS'IraqComm-2007-07-18T07-42-59-421-078'
p953
aS'IraqComm-2007-07-18T08-10-36-500-003'
p954
aS'IraqComm-2007-07-18T08-10-36-500-005'
p955
aS'IraqComm-2007-07-18T08-10-36-500-007'
p956
aS'IraqComm-2007-07-18T08-10-36-500-008'
p957
aS'IraqComm-2007-07-18T08-10-36-500-010'
p958
aS'IraqComm-2007-07-18T08-10-36-500-012'
p959
aS'IraqComm-2007-07-18T08-10-36-500-017'
p960
aS'IraqComm-2007-07-18T08-10-36-500-019'
p961
aS'IraqComm-2007-07-18T08-10-36-500-023'
p962
aS'IraqComm-2007-07-18T08-10-36-500-026'
p963
aS'IraqComm-2007-07-18T08-10-36-500-030'
p964
aS'IraqComm-2007-07-18T08-10-36-500-032'
p965
aS'IraqComm-2007-07-18T08-10-36-500-034'
p966
aS'IraqComm-2007-07-18T08-10-36-500-036'
p967
aS'IraqComm-2007-07-18T08-10-36-500-038'
p968
aS'IraqComm-2007-07-18T08-10-36-500-040'
p969
aS'IraqComm-2007-07-18T08-10-36-500-042'
p970
aS'IraqComm-2007-07-18T08-10-36-500-044'
p971
aS'IraqComm-2007-07-18T08-10-36-500-045'
p972
aS'IraqComm-2007-07-18T08-10-36-500-047'
p973
aS'IraqComm-2007-07-18T08-10-36-500-048'
p974
aS'IraqComm-2007-07-18T08-10-36-500-050'
p975
aS'IraqComm-2007-07-18T08-10-36-500-052'
p976
aS'IraqComm-2007-07-18T08-10-36-500-054'
p977
aS'IraqComm-2007-07-18T08-10-36-500-056'
p978
aS'IraqComm-2007-07-18T08-10-36-500-058'
p979
aS'IraqComm-2007-07-18T08-10-36-500-060'
p980
aS'IraqComm-2007-07-18T08-10-36-500-062'
p981
aS'IraqComm-2007-07-18T08-10-36-500-064'
p982
aS'IraqComm-2007-07-18T08-10-36-500-070'
p983
aS'IraqComm-2007-07-18T08-10-36-500-071'
p984
aS'IraqComm-2007-07-18T08-10-36-500-073'
p985
aS'IraqComm-2007-07-18T08-10-36-500-075'
p986
aS'IraqComm-2007-07-18T08-10-36-500-077'
p987
aS'IraqComm-2007-07-18T08-10-36-500-078'
p988
aS'IraqComm-2007-07-18T08-10-36-500-081'
p989
aS'IraqComm-2007-07-18T08-33-42-531-003'
p990
aS'IraqComm-2007-07-18T08-33-42-531-005'
p991
aS'IraqComm-2007-07-18T08-33-42-531-006'
p992
aS'IraqComm-2007-07-18T08-33-42-531-008'
p993
aS'IraqComm-2007-07-18T08-33-42-531-015'
p994
aS'IraqComm-2007-07-18T08-33-42-531-016'
p995
aS'IraqComm-2007-07-18T08-33-42-531-018'
p996
aS'IraqComm-2007-07-18T08-33-42-531-022'
p997
aS'IraqComm-2007-07-18T08-33-42-531-026'
p998
aS'IraqComm-2007-07-18T08-33-42-531-027'
p999
aS'IraqComm-2007-07-18T08-33-42-531-032'
p1000
aS'IraqComm-2007-07-18T08-33-42-531-034'
p1001
aS'IraqComm-2007-07-18T08-33-42-531-035'
p1002
aS'IraqComm-2007-07-18T08-33-42-531-041'
p1003
aS'IraqComm-2007-07-18T08-33-42-531-043'
p1004
aS'IraqComm-2007-07-18T08-33-42-531-045'
p1005
aS'IraqComm-2007-07-18T08-33-42-531-047'
p1006
aS'IraqComm-2007-07-18T08-33-42-531-049'
p1007
aS'IraqComm-2007-07-18T08-33-42-531-056'
p1008
aS'IraqComm-2007-07-18T08-33-42-531-058'
p1009
aS'IraqComm-2007-07-18T08-33-42-531-060'
p1010
aS'IraqComm-2007-07-18T08-33-42-531-061'
p1011
aS'IraqComm-2007-07-18T08-33-42-531-065'
p1012
aS'IraqComm-2007-07-18T08-33-42-531-066'
p1013
aS'IraqComm-2007-07-18T08-33-42-531-068'
p1014
aS'IraqComm-2007-07-18T09-59-22-953-009'
p1015
aS'IraqComm-2007-07-18T09-59-22-953-011'
p1016
aS'IraqComm-2007-07-18T09-59-22-953-012'
p1017
aS'IraqComm-2007-07-18T09-59-22-953-014'
p1018
aS'IraqComm-2007-07-18T09-59-22-953-016'
p1019
aS'IraqComm-2007-07-18T09-59-22-953-023'
p1020
aS'IraqComm-2007-07-18T09-59-22-953-029'
p1021
aS'IraqComm-2007-07-18T09-59-22-953-033'
p1022
aS'IraqComm-2007-07-18T09-59-22-953-034'
p1023
aS'IraqComm-2007-07-18T09-59-22-953-042'
p1024
aS'IraqComm-2007-07-18T09-59-22-953-046'
p1025
aS'IraqComm-2007-07-18T09-59-22-953-050'
p1026
aS'IraqComm-2007-07-18T09-59-22-953-054'
p1027
aS'IraqComm-2007-07-18T09-59-22-953-056'
p1028
aS'IraqComm-2007-07-18T09-59-22-953-062'
p1029
aS'IraqComm-2007-07-18T09-59-22-953-064'
p1030
aS'IraqComm-2007-07-18T09-59-22-953-066'
p1031
aS'IraqComm-2007-07-18T09-59-22-953-067'
p1032
aS'IraqComm-2007-07-18T10-27-04-140-006'
p1033
aS'IraqComm-2007-07-18T10-27-04-140-008'
p1034
aS'IraqComm-2007-07-18T10-27-04-140-010'
p1035
aS'IraqComm-2007-07-18T10-27-04-140-012'
p1036
aS'IraqComm-2007-07-18T10-27-04-140-014'
p1037
aS'IraqComm-2007-07-18T10-27-04-140-016'
p1038
aS'IraqComm-2007-07-18T10-27-04-140-019'
p1039
aS'IraqComm-2007-07-18T10-27-04-140-023'
p1040
aS'IraqComm-2007-07-18T10-27-04-140-025'
p1041
aS'IraqComm-2007-07-18T10-27-04-140-031'
p1042
aS'IraqComm-2007-07-18T10-27-04-140-032'
p1043
aS'IraqComm-2007-07-18T10-27-04-140-033'
p1044
aS'IraqComm-2007-07-18T10-27-04-140-034'
p1045
aS'IraqComm-2007-07-18T10-27-04-140-036'
p1046
aS'IraqComm-2007-07-18T10-27-04-140-038'
p1047
aS'IraqComm-2007-07-18T10-27-04-140-040'
p1048
aS'IraqComm-2007-07-18T10-27-04-140-041'
p1049
aS'IraqComm-2007-07-18T10-27-04-140-043'
p1050
aS'IraqComm-2007-07-18T10-27-04-140-046'
p1051
aS'IraqComm-2007-07-18T10-27-04-140-048'
p1052
aS'IraqComm-2007-07-18T10-27-04-140-050'
p1053
aS'IraqComm-2007-07-18T10-27-04-140-052'
p1054
aS'IraqComm-2007-07-18T10-27-04-140-054'
p1055
aS'IraqComm-2007-07-18T10-27-04-140-056'
p1056
aS'IraqComm-2007-07-18T10-27-04-140-059'
p1057
aS'IraqComm-2007-07-18T10-27-04-140-060'
p1058
aS'IraqComm-2007-07-18T10-27-04-140-062'
p1059
aS'IraqComm-2007-07-18T10-27-04-140-066'
p1060
aS'IraqComm-2007-07-18T10-27-04-140-068'
p1061
aS'IraqComm-2007-07-18T10-27-04-140-069'
p1062
aS'IraqComm-2007-07-18T10-27-04-140-070'
p1063
aS'IraqComm-2007-07-18T10-27-04-140-074'
p1064
aS'IraqComm-2007-07-18T10-27-04-140-076'
p1065
aS'IraqComm-2007-07-18T10-27-04-140-078'
p1066
aS'IraqComm-2007-07-18T10-27-04-140-079'
p1067
aS'IraqComm-2007-07-18T10-47-27-546-004'
p1068
aS'IraqComm-2007-07-18T10-47-27-546-005'
p1069
aS'IraqComm-2007-07-18T10-47-27-546-008'
p1070
aS'IraqComm-2007-07-18T10-47-27-546-010'
p1071
aS'IraqComm-2007-07-18T10-47-27-546-012'
p1072
aS'IraqComm-2007-07-18T10-47-27-546-013'
p1073
aS'IraqComm-2007-07-18T10-47-27-546-015'
p1074
aS'IraqComm-2007-07-18T10-47-27-546-017'
p1075
aS'IraqComm-2007-07-18T10-47-27-546-021'
p1076
aS'IraqComm-2007-07-18T10-47-27-546-023'
p1077
aS'IraqComm-2007-07-18T10-47-27-546-025'
p1078
aS'IraqComm-2007-07-18T10-47-27-546-027'
p1079
aS'IraqComm-2007-07-18T10-47-27-546-029'
p1080
aS'IraqComm-2007-07-18T10-47-27-546-033'
p1081
aS'IraqComm-2007-07-18T10-47-27-546-037'
p1082
aS'IraqComm-2007-07-18T10-47-27-546-041'
p1083
aS'IraqComm-2007-07-18T10-47-27-546-046'
p1084
aS'IraqComm-2007-07-18T10-47-27-546-048'
p1085
aS'IraqComm-2007-07-18T10-47-27-546-050'
p1086
aS'IraqComm-2007-07-18T10-47-27-546-052'
p1087
aS'IraqComm-2007-07-18T10-47-27-546-054'
p1088
aS'IraqComm-2007-07-18T10-47-27-546-056'
p1089
aS'IraqComm-2007-07-18T10-47-27-546-058'
p1090
aS'IraqComm-2007-07-18T10-47-27-546-060'
p1091
aS'IraqComm-2007-07-18T10-47-27-546-062'
p1092
aS'IraqComm-2007-07-18T10-47-27-546-064'
p1093
aS'IraqComm-2007-07-18T10-47-27-546-065'
p1094
aS'IraqComm-2007-07-18T10-47-27-546-067'
p1095
aS'IraqComm-2007-07-18T10-47-27-546-069'
p1096
aS'IraqComm-2007-07-18T10-47-27-546-071'
p1097
aS'IraqComm-2007-07-18T10-47-27-546-073'
p1098
aS'IraqComm-2007-07-18T10-47-27-546-075'
p1099
aS'IraqComm-2007-07-18T10-47-27-546-077'
p1100
aS'IraqComm-2007-07-18T10-47-27-546-078'
p1101
aS'IraqComm-2007-07-18T10-47-27-546-080'
p1102
aS'IraqComm-2007-07-18T11-12-48-046-001'
p1103
aS'IraqComm-2007-07-18T11-12-48-046-003'
p1104
aS'IraqComm-2007-07-18T11-12-48-046-004'
p1105
aS'IraqComm-2007-07-18T11-12-48-046-006'
p1106
aS'IraqComm-2007-07-18T11-12-48-046-010'
p1107
aS'IraqComm-2007-07-18T11-12-48-046-014'
p1108
aS'IraqComm-2007-07-18T11-12-48-046-017'
p1109
aS'IraqComm-2007-07-18T11-12-48-046-019'
p1110
aS'IraqComm-2007-07-18T11-12-48-046-024'
p1111
aS'IraqComm-2007-07-18T11-12-48-046-026'
p1112
aS'IraqComm-2007-07-18T11-12-48-046-030'
p1113
aS'IraqComm-2007-07-18T11-12-48-046-032'
p1114
aS'IraqComm-2007-07-18T11-12-48-046-034'
p1115
aS'IraqComm-2007-07-18T11-12-48-046-036'
p1116
aS'IraqComm-2007-07-18T11-12-48-046-038'
p1117
aS'IraqComm-2007-07-18T11-12-48-046-039'
p1118
aS'IraqComm-2007-07-18T11-12-48-046-041'
p1119
aS'IraqComm-2007-07-18T11-12-48-046-043'
p1120
aS'IraqComm-2007-07-18T11-12-48-046-045'
p1121
aS'IraqComm-2007-07-18T11-12-48-046-047'
p1122
aS'IraqComm-2007-07-18T11-12-48-046-049'
p1123
aS'IraqComm-2007-07-18T11-12-48-046-051'
p1124
aS'IraqComm-2007-07-18T11-12-48-046-053'
p1125
aS'IraqComm-2007-07-18T11-12-48-046-055'
p1126
aS'IraqComm-2007-07-18T11-12-48-046-057'
p1127
aS'IraqComm-2007-07-18T11-12-48-046-059'
p1128
aS'IraqComm-2007-07-18T11-12-48-046-061'
p1129
aS'IraqComm-2007-07-18T11-12-48-046-063'
p1130
aS'IraqComm-2007-07-18T11-12-48-046-065'
p1131
aS'IraqComm-2007-07-18T11-12-48-046-067'
p1132
aS'IraqComm-2007-07-18T11-12-48-046-069'
p1133
aS'IraqComm-2007-07-18T11-12-48-046-072'
p1134
aS'IraqComm-2007-07-18T11-12-48-046-074'
p1135
aS'IraqComm-2007-07-18T11-12-48-046-076'
p1136
aS'IraqComm-2007-07-18T11-12-48-046-078'
p1137
aS'IraqComm-2007-07-18T11-12-48-046-080'
p1138
aS'IraqComm-2007-07-18T11-12-48-046-082'
p1139
aS'IraqComm-2007-07-18T11-12-48-046-083'
p1140
aS'IraqComm-2007-07-18T11-12-48-046-084'
p1141
aS'IraqComm-2008-06-10T11-11-27-218-003'
p1142
aS'IraqComm-2008-06-10T11-11-27-218-005'
p1143
aS'IraqComm-2008-06-10T11-11-27-218-007'
p1144
aS'IraqComm-2008-06-10T11-11-27-218-008'
p1145
aS'IraqComm-2008-06-10T11-11-27-218-011'
p1146
aS'IraqComm-2008-06-10T11-11-27-218-013'
p1147
aS'IraqComm-2008-06-10T11-11-27-218-014'
p1148
aS'IraqComm-2008-06-10T11-11-27-218-017'
p1149
aS'IraqComm-2008-06-10T11-11-27-218-018'
p1150
aS'IraqComm-2008-06-10T11-11-27-218-021'
p1151
aS'IraqComm-2008-06-10T11-11-27-218-022'
p1152
aS'IraqComm-2008-06-10T11-11-27-218-024'
p1153
aS'IraqComm-2008-06-10T11-11-27-218-026'
p1154
aS'IraqComm-2008-06-10T11-11-27-218-028'
p1155
aS'IraqComm-2008-06-10T11-11-27-218-030'
p1156
aS'IraqComm-2008-06-10T11-11-27-218-032'
p1157
aS'IraqComm-2008-06-10T11-11-27-218-034'
p1158
aS'IraqComm-2008-06-10T11-11-27-218-036'
p1159
aS'IraqComm-2008-06-10T11-11-27-218-037'
p1160
aS'IraqComm-2008-06-10T11-11-27-218-039'
p1161
aS'IraqComm-2008-06-10T11-11-27-218-041'
p1162
aS'IraqComm-2008-06-10T11-11-27-218-042'
p1163
aS'IraqComm-2008-06-10T11-11-27-218-044'
p1164
aS'IraqComm-2008-06-10T11-11-27-218-050'
p1165
aS'IraqComm-2008-06-10T11-11-27-218-051'
p1166
aS'IraqComm-2008-06-10T11-11-27-218-053'
p1167
aS'IraqComm-2008-06-10T11-11-27-218-055'
p1168
aS'IraqComm-2008-06-10T11-11-27-218-057'
p1169
aS'IraqComm-2008-06-10T11-11-27-218-061'
p1170
aS'IraqComm-2008-06-10T11-11-27-218-065'
p1171
aS'IraqComm-2008-06-10T11-11-27-218-066'
p1172
aS'IraqComm-2008-06-10T11-11-27-218-068'
p1173
aS'IraqComm-2008-06-10T11-11-27-218-070'
p1174
aS'IraqComm-2008-06-10T11-11-27-218-071'
p1175
aS'IraqComm-2008-06-10T11-11-27-218-072'
p1176
aS'IraqComm-2008-06-10T11-11-27-218-074'
p1177
aS'IraqComm-2008-06-10T11-11-27-218-076'
p1178
aS'IraqComm-2008-06-10T11-11-27-218-078'
p1179
aS'IraqComm-2008-06-10T11-11-27-218-080'
p1180
aS'IraqComm-2008-06-10T11-39-58-562-001'
p1181
aS'IraqComm-2008-06-10T11-39-58-562-003'
p1182
aS'IraqComm-2008-06-10T11-39-58-562-005'
p1183
aS'IraqComm-2008-06-10T11-39-58-562-007'
p1184
aS'IraqComm-2008-06-10T11-39-58-562-009'
p1185
aS'IraqComm-2008-06-10T11-39-58-562-011'
p1186
aS'IraqComm-2008-06-10T11-39-58-562-015'
p1187
aS'IraqComm-2008-06-10T11-39-58-562-016'
p1188
aS'IraqComm-2008-06-10T11-39-58-562-018'
p1189
aS'IraqComm-2008-06-10T11-39-58-562-020'
p1190
aS'IraqComm-2008-06-10T11-39-58-562-022'
p1191
aS'IraqComm-2008-06-10T11-39-58-562-023'
p1192
aS'IraqComm-2008-06-10T11-39-58-562-025'
p1193
aS'IraqComm-2008-06-10T11-39-58-562-029'
p1194
aS'IraqComm-2008-06-10T11-39-58-562-031'
p1195
aS'IraqComm-2008-06-10T11-39-58-562-033'
p1196
aS'IraqComm-2008-06-10T11-39-58-562-035'
p1197
aS'IraqComm-2008-06-10T11-39-58-562-037'
p1198
aS'IraqComm-2008-06-10T11-39-58-562-039'
p1199
aS'IraqComm-2008-06-10T11-39-58-562-040'
p1200
aS'IraqComm-2008-06-10T11-39-58-562-042'
p1201
aS'IraqComm-2008-06-10T11-39-58-562-044'
p1202
aS'IraqComm-2008-06-10T11-39-58-562-048'
p1203
aS'IraqComm-2008-06-10T11-39-58-562-050'
p1204
aS'IraqComm-2008-06-10T11-39-58-562-052'
p1205
aS'IraqComm-2008-06-10T11-39-58-562-054'
p1206
aS'IraqComm-2008-06-10T11-39-58-562-056'
p1207
aS'IraqComm-2008-06-10T11-39-58-562-058'
p1208
aS'IraqComm-2008-06-10T11-39-58-562-060'
p1209
aS'IraqComm-2008-06-10T11-39-58-562-062'
p1210
aS'IraqComm-2008-06-10T11-39-58-562-063'
p1211
aS'IraqComm-2008-06-10T11-39-58-562-064'
p1212
aS'IraqComm-2008-06-10T11-39-58-562-066'
p1213
aS'IraqComm-2008-06-10T11-39-58-562-068'
p1214
aS'IraqComm-2008-06-10T11-39-58-562-072'
p1215
aS'IraqComm-2008-06-10T11-39-58-562-075'
p1216
aS'IraqComm-2008-06-10T11-39-58-562-078'
p1217
aS'IraqComm-2008-06-10T11-39-58-562-079'
p1218
aS'IraqComm-2008-06-10T11-39-58-562-081'
p1219
aS'IraqComm-2008-06-10T11-39-58-562-083'
p1220
aS'IraqComm-2008-06-10T11-39-58-562-085'
p1221
aS'IraqComm-2008-06-10T11-39-58-562-089'
p1222
aS'IraqComm-2008-06-10T12-10-02-546-001'
p1223
aS'IraqComm-2008-06-10T12-10-02-546-003'
p1224
aS'IraqComm-2008-06-10T12-10-02-546-004'
p1225
aS'IraqComm-2008-06-10T12-10-02-546-006'
p1226
aS'IraqComm-2008-06-10T12-10-02-546-008'
p1227
aS'IraqComm-2008-06-10T12-10-02-546-010'
p1228
aS'IraqComm-2008-06-10T12-10-02-546-011'
p1229
aS'IraqComm-2008-06-10T12-10-02-546-013'
p1230
aS'IraqComm-2008-06-10T12-10-02-546-015'
p1231
aS'IraqComm-2008-06-10T12-10-02-546-017'
p1232
aS'IraqComm-2008-06-10T12-10-02-546-019'
p1233
aS'IraqComm-2008-06-10T12-10-02-546-021'
p1234
aS'IraqComm-2008-06-10T12-10-02-546-023'
p1235
aS'IraqComm-2008-06-10T12-10-02-546-025'
p1236
aS'IraqComm-2008-06-10T12-10-02-546-027'
p1237
aS'IraqComm-2008-06-10T12-10-02-546-029'
p1238
aS'IraqComm-2008-06-10T12-10-02-546-031'
p1239
aS'IraqComm-2008-06-10T12-10-02-546-033'
p1240
aS'IraqComm-2008-06-10T12-10-02-546-035'
p1241
aS'IraqComm-2008-06-10T12-10-02-546-037'
p1242
aS'IraqComm-2008-06-10T12-10-02-546-039'
p1243
aS'IraqComm-2008-06-10T12-10-02-546-042'
p1244
aS'IraqComm-2008-06-10T12-10-02-546-046'
p1245
aS'IraqComm-2008-06-10T12-10-02-546-048'
p1246
aS'IraqComm-2008-06-10T12-10-02-546-052'
p1247
aS'IraqComm-2008-06-10T12-10-02-546-054'
p1248
aS'IraqComm-2008-06-10T12-10-02-546-056'
p1249
aS'IraqComm-2008-06-10T12-10-02-546-058'
p1250
aS'IraqComm-2008-06-10T12-10-02-546-060'
p1251
aS'IraqComm-2008-06-10T12-10-02-546-064'
p1252
aS'IraqComm-2008-06-10T12-10-02-546-066'
p1253
aS'IraqComm-2008-06-10T12-10-02-546-068'
p1254
aS'IraqComm-2008-06-10T12-10-02-546-069'
p1255
aS'IraqComm-2008-06-10T12-10-02-546-071'
p1256
aS'IraqComm-2008-06-10T13-17-56-828-003'
p1257
aS'IraqComm-2008-06-10T13-17-56-828-004'
p1258
aS'IraqComm-2008-06-10T13-17-56-828-006'
p1259
aS'IraqComm-2008-06-10T13-17-56-828-014'
p1260
aS'IraqComm-2008-06-10T13-17-56-828-022'
p1261
aS'IraqComm-2008-06-10T13-17-56-828-024'
p1262
aS'IraqComm-2008-06-10T13-17-56-828-027'
p1263
aS'IraqComm-2008-06-10T13-17-56-828-031'
p1264
aS'IraqComm-2008-06-10T13-17-56-828-032'
p1265
aS'IraqComm-2008-06-10T13-17-56-828-034'
p1266
aS'IraqComm-2008-06-10T13-17-56-828-040'
p1267
aS'IraqComm-2008-06-10T13-17-56-828-042'
p1268
aS'IraqComm-2008-06-10T13-17-56-828-046'
p1269
aS'IraqComm-2008-06-10T13-17-56-828-048'
p1270
aS'IraqComm-2008-06-10T13-17-56-828-050'
p1271
aS'IraqComm-2008-06-10T13-17-56-828-051'
p1272
aS'IraqComm-2008-06-10T13-17-56-828-053'
p1273
aS'IraqComm-2008-06-10T13-17-56-828-055'
p1274
aS'IraqComm-2008-06-10T13-48-44-250-001'
p1275
aS'IraqComm-2008-06-10T13-48-44-250-003'
p1276
aS'IraqComm-2008-06-10T13-48-44-250-004'
p1277
aS'IraqComm-2008-06-10T13-48-44-250-006'
p1278
aS'IraqComm-2008-06-10T13-48-44-250-008'
p1279
aS'IraqComm-2008-06-10T13-48-44-250-010'
p1280
aS'IraqComm-2008-06-10T13-48-44-250-012'
p1281
aS'IraqComm-2008-06-10T13-48-44-250-016'
p1282
aS'IraqComm-2008-06-10T13-48-44-250-018'
p1283
aS'IraqComm-2008-06-10T13-48-44-250-019'
p1284
aS'IraqComm-2008-06-10T13-48-44-250-021'
p1285
aS'IraqComm-2008-06-10T13-48-44-250-023'
p1286
aS'IraqComm-2008-06-10T13-48-44-250-025'
p1287
aS'IraqComm-2008-06-10T13-48-44-250-027'
p1288
aS'IraqComm-2008-06-10T13-48-44-250-029'
p1289
aS'IraqComm-2008-06-10T13-48-44-250-031'
p1290
aS'IraqComm-2008-06-10T13-48-44-250-033'
p1291
aS'IraqComm-2008-06-10T13-48-44-250-035'
p1292
aS'IraqComm-2008-06-10T13-48-44-250-037'
p1293
aS'IraqComm-2008-06-10T13-48-44-250-039'
p1294
aS'IraqComm-2008-06-10T13-48-44-250-041'
p1295
aS'IraqComm-2008-06-10T13-48-44-250-043'
p1296
aS'IraqComm-2008-06-10T13-48-44-250-047'
p1297
aS'IraqComm-2008-06-10T13-48-44-250-049'
p1298
aS'IraqComm-2008-06-10T13-48-44-250-051'
p1299
aS'IraqComm-2008-06-10T13-48-44-250-057'
p1300
aS'IraqComm-2008-06-10T13-48-44-250-059'
p1301
aS'IraqComm-2008-06-10T13-48-44-250-060'
p1302
aS'IraqComm-2008-06-10T14-19-38-812-001'
p1303
aS'IraqComm-2008-06-10T14-19-38-812-004'
p1304
aS'IraqComm-2008-06-10T14-19-38-812-005'
p1305
aS'IraqComm-2008-06-10T14-19-38-812-007'
p1306
aS'IraqComm-2008-06-10T14-19-38-812-009'
p1307
aS'IraqComm-2008-06-10T14-19-38-812-012'
p1308
aS'IraqComm-2008-06-10T14-19-38-812-013'
p1309
aS'IraqComm-2008-06-10T14-19-38-812-015'
p1310
aS'IraqComm-2008-06-10T14-19-38-812-017'
p1311
aS'IraqComm-2008-06-10T14-19-38-812-019'
p1312
aS'IraqComm-2008-06-10T14-19-38-812-021'
p1313
aS'IraqComm-2008-06-10T14-19-38-812-023'
p1314
aS'IraqComm-2008-06-10T14-19-38-812-025'
p1315
aS'IraqComm-2008-06-10T14-19-38-812-027'
p1316
aS'IraqComm-2008-06-10T14-19-38-812-029'
p1317
aS'IraqComm-2008-06-10T14-19-38-812-031'
p1318
aS'IraqComm-2008-06-10T14-19-38-812-033'
p1319
aS'IraqComm-2008-06-10T14-19-38-812-034'
p1320
aS'IraqComm-2008-06-10T14-19-38-812-036'
p1321
aS'IraqComm-2008-06-10T14-19-38-812-038'
p1322
aS'IraqComm-2008-06-10T14-19-38-812-042'
p1323
aS'IraqComm-2008-06-10T14-19-38-812-044'
p1324
aS'IraqComm-2008-06-10T14-19-38-812-046'
p1325
aS'IraqComm-2008-06-10T14-19-38-812-048'
p1326
aS'IraqComm-2008-06-10T14-19-38-812-052'
p1327
aS'IraqComm-2008-06-10T14-19-38-812-054'
p1328
aS'IraqComm-2008-06-10T14-19-38-812-056'
p1329
aS'IraqComm-2008-06-10T14-19-38-812-058'
p1330
aS'IraqComm-2008-06-10T14-19-38-812-060'
p1331
aS'IraqComm-2008-06-10T14-19-38-812-062'
p1332
aS'IraqComm-2008-06-10T14-19-38-812-065'
p1333
aS'IraqComm-2008-06-10T14-19-38-812-067'
p1334
aS'IraqComm-2008-06-10T14-19-38-812-069'
p1335
aS'IraqComm-2008-06-11T05-35-20-421-001'
p1336
aS'IraqComm-2008-06-11T05-35-20-421-005'
p1337
aS'IraqComm-2008-06-11T05-35-20-421-006'
p1338
aS'IraqComm-2008-06-11T05-35-20-421-007'
p1339
aS'IraqComm-2008-06-11T05-35-20-421-008'
p1340
aS'IraqComm-2008-06-11T05-35-20-421-009'
p1341
aS'IraqComm-2008-06-11T05-35-20-421-010'
p1342
aS'IraqComm-2008-06-11T05-35-20-421-013'
p1343
aS'IraqComm-2008-06-11T05-35-20-421-015'
p1344
aS'IraqComm-2008-06-11T05-35-20-421-017'
p1345
aS'IraqComm-2008-06-11T05-35-20-421-021'
p1346
aS'IraqComm-2008-06-11T05-35-20-421-028'
p1347
aS'IraqComm-2008-06-11T05-35-20-421-030'
p1348
aS'IraqComm-2008-06-11T05-35-20-421-032'
p1349
aS'IraqComm-2008-06-11T05-35-20-421-034'
p1350
aS'IraqComm-2008-06-11T05-35-20-421-036'
p1351
aS'IraqComm-2008-06-11T05-35-20-421-042'
p1352
aS'IraqComm-2008-06-11T05-35-20-421-044'
p1353
aS'IraqComm-2008-06-11T05-35-20-421-046'
p1354
aS'IraqComm-2008-06-11T05-35-20-421-048'
p1355
aS'IraqComm-2008-06-11T05-35-20-421-050'
p1356
aS'IraqComm-2008-06-11T05-35-20-421-052'
p1357
aS'IraqComm-2008-06-11T05-35-20-421-056'
p1358
aS'IraqComm-2008-06-11T06-08-35-250-003'
p1359
aS'IraqComm-2008-06-11T06-08-35-250-008'
p1360
aS'IraqComm-2008-06-11T06-08-35-250-009'
p1361
aS'IraqComm-2008-06-11T06-08-35-250-010'
p1362
aS'IraqComm-2008-06-11T06-08-35-250-012'
p1363
aS'IraqComm-2008-06-11T06-08-35-250-014'
p1364
aS'IraqComm-2008-06-11T06-08-35-250-016'
p1365
aS'IraqComm-2008-06-11T06-08-35-250-021'
p1366
aS'IraqComm-2008-06-11T06-08-35-250-023'
p1367
aS'IraqComm-2008-06-11T06-08-35-250-028'
p1368
aS'IraqComm-2008-06-11T06-08-35-250-030'
p1369
aS'IraqComm-2008-06-11T06-08-35-250-031'
p1370
aS'IraqComm-2008-06-11T06-08-35-250-033'
p1371
aS'IraqComm-2008-06-11T06-08-35-250-035'
p1372
aS'IraqComm-2008-06-11T06-08-35-250-040'
p1373
aS'IraqComm-2008-06-11T06-08-35-250-043'
p1374
aS'IraqComm-2008-06-11T06-08-35-250-045'
p1375
aS'IraqComm-2008-06-11T06-08-35-250-047'
p1376
aS'IraqComm-2008-06-11T06-08-35-250-049'
p1377
aS'IraqComm-2008-06-11T06-08-35-250-053'
p1378
aS'IraqComm-2008-06-11T06-08-35-250-054'
p1379
aS'IraqComm-2008-06-11T06-08-35-250-056'
p1380
aS'IraqComm-2008-06-11T06-08-35-250-058'
p1381
aS'IraqComm-2008-06-11T06-08-35-250-060'
p1382
aS'IraqComm-2008-06-11T06-08-35-250-062'
p1383
aS'IraqComm-2008-06-11T06-08-35-250-064'
p1384
aS'IraqComm-2008-06-11T06-08-35-250-066'
p1385
aS'IraqComm-2008-06-11T06-08-35-250-068'
p1386
aS'IraqComm-2008-06-11T06-08-35-250-072'
p1387
aS'IraqComm-2008-06-11T06-08-35-250-075'
p1388
aS'IraqComm-2008-06-11T06-08-35-250-076'
p1389
aS'IraqComm-2008-06-11T06-08-35-250-078'
p1390
aS'IraqComm-2008-06-11T06-08-35-250-080'
p1391
aS'IraqComm-2008-06-11T06-08-35-250-082'
p1392
aS'IraqComm-2008-06-11T06-08-35-250-084'
p1393
aS'IraqComm-2008-06-11T07-08-23-796-001'
p1394
aS'IraqComm-2008-06-11T07-08-23-796-003'
p1395
aS'IraqComm-2008-06-11T07-08-23-796-005'
p1396
aS'IraqComm-2008-06-11T07-08-23-796-007'
p1397
aS'IraqComm-2008-06-11T07-08-23-796-009'
p1398
aS'IraqComm-2008-06-11T07-08-23-796-012'
p1399
aS'IraqComm-2008-06-11T07-08-23-796-014'
p1400
aS'IraqComm-2008-06-11T07-08-23-796-016'
p1401
aS'IraqComm-2008-06-11T07-08-23-796-021'
p1402
aS'IraqComm-2008-06-11T07-08-23-796-023'
p1403
aS'IraqComm-2008-06-11T07-08-23-796-026'
p1404
aS'IraqComm-2008-06-11T07-08-23-796-028'
p1405
aS'IraqComm-2008-06-11T07-08-23-796-030'
p1406
aS'IraqComm-2008-06-11T07-08-23-796-032'
p1407
aS'IraqComm-2008-06-11T07-08-23-796-034'
p1408
aS'IraqComm-2008-06-11T07-08-23-796-036'
p1409
aS'IraqComm-2008-06-11T07-08-23-796-038'
p1410
aS'IraqComm-2008-06-11T07-08-23-796-040'
p1411
aS'IraqComm-2008-06-11T07-08-23-796-043'
p1412
aS'IraqComm-2008-06-11T07-08-23-796-045'
p1413
aS'IraqComm-2008-06-11T07-08-23-796-047'
p1414
aS'IraqComm-2008-06-11T07-08-23-796-049'
p1415
aS'IraqComm-2008-06-11T07-08-23-796-051'
p1416
aS'IraqComm-2008-06-11T07-08-23-796-057'
p1417
aS'IraqComm-2008-06-11T07-08-23-796-058'
p1418
aS'IraqComm-2008-06-11T07-08-23-796-059'
p1419
aS'IraqComm-2008-06-11T07-08-23-796-060'
p1420
aS'IraqComm-2008-06-11T07-08-23-796-062'
p1421
aS'IraqComm-2008-06-11T07-08-23-796-067'
p1422
aS'IraqComm-2008-06-11T07-08-23-796-072'
p1423
aS'IraqComm-2008-06-11T07-08-23-796-074'
p1424
aS'IraqComm-2008-06-11T07-08-23-796-076'
p1425
aS'IraqComm-2008-06-11T07-08-23-796-080'
p1426
aS'IraqComm-2008-06-11T07-08-23-796-082'
p1427
aS'IraqComm-2008-06-11T07-08-23-796-084'
p1428
aS'IraqComm-2008-06-11T08-27-38-625-001'
p1429
aS'IraqComm-2008-06-11T08-27-38-625-003'
p1430
aS'IraqComm-2008-06-11T08-27-38-625-005'
p1431
aS'IraqComm-2008-06-11T08-27-38-625-007'
p1432
aS'IraqComm-2008-06-11T08-27-38-625-008'
p1433
aS'IraqComm-2008-06-11T08-27-38-625-011'
p1434
aS'IraqComm-2008-06-11T08-27-38-625-013'
p1435
aS'IraqComm-2008-06-11T08-27-38-625-015'
p1436
aS'IraqComm-2008-06-11T08-27-38-625-019'
p1437
aS'IraqComm-2008-06-11T08-27-38-625-020'
p1438
aS'IraqComm-2008-06-11T08-27-38-625-022'
p1439
aS'IraqComm-2008-06-11T08-27-38-625-024'
p1440
aS'IraqComm-2008-06-11T08-27-38-625-026'
p1441
aS'IraqComm-2008-06-11T08-27-38-625-028'
p1442
aS'IraqComm-2008-06-11T08-27-38-625-030'
p1443
aS'IraqComm-2008-06-11T08-27-38-625-032'
p1444
aS'IraqComm-2008-06-11T08-27-38-625-036'
p1445
aS'IraqComm-2008-06-11T08-27-38-625-040'
p1446
aS'IraqComm-2008-06-11T08-27-38-625-042'
p1447
aS'IraqComm-2008-06-11T08-27-38-625-044'
p1448
aS'IraqComm-2008-06-11T08-27-38-625-047'
p1449
aS'IraqComm-2008-06-11T08-27-38-625-049'
p1450
aS'IraqComm-2008-06-11T08-27-38-625-051'
p1451
aS'IraqComm-2008-06-11T08-27-38-625-053'
p1452
aS'IraqComm-2008-06-11T08-27-38-625-055'
p1453
aS'IraqComm-2008-06-11T08-27-38-625-057'
p1454
aS'IraqComm-2008-06-11T08-27-38-625-059'
p1455
aS'IraqComm-2008-06-11T08-27-38-625-061'
p1456
aS'IraqComm-2008-06-11T08-27-38-625-063'
p1457
aS'IraqComm-2008-06-11T08-27-38-625-065'
p1458
aS'IraqComm-2008-06-11T08-27-38-625-067'
p1459
aS'IraqComm-2008-06-11T08-27-38-625-069'
p1460
aS'IraqComm-2008-06-11T08-27-38-625-077'
p1461
aS'IraqComm-2008-06-11T08-27-38-625-080'
p1462
aS'IraqComm-2008-06-11T08-27-38-625-082'
p1463
aS'IraqComm-2008-06-11T08-52-50-421-001'
p1464
aS'IraqComm-2008-06-11T08-52-50-421-003'
p1465
aS'IraqComm-2008-06-11T08-52-50-421-005'
p1466
aS'IraqComm-2008-06-11T08-52-50-421-009'
p1467
aS'IraqComm-2008-06-11T08-52-50-421-011'
p1468
aS'IraqComm-2008-06-11T08-52-50-421-012'
p1469
aS'IraqComm-2008-06-11T08-52-50-421-014'
p1470
aS'IraqComm-2008-06-11T08-52-50-421-016'
p1471
aS'IraqComm-2008-06-11T08-52-50-421-018'
p1472
aS'IraqComm-2008-06-11T08-52-50-421-020'
p1473
aS'IraqComm-2008-06-11T08-52-50-421-026'
p1474
aS'IraqComm-2008-06-11T08-52-50-421-038'
p1475
aS'IraqComm-2008-06-11T08-52-50-421-041'
p1476
aS'IraqComm-2008-06-11T08-52-50-421-051'
p1477
aS'IraqComm-2008-06-11T08-52-50-421-053'
p1478
aS'IraqComm-2008-06-11T08-52-50-421-059'
p1479
aS'IraqComm-2008-06-11T08-52-50-421-061'
p1480
aS'IraqComm-2008-06-11T08-52-50-421-065'
p1481
aS'IraqComm-2008-06-11T08-52-50-421-066'
p1482
aS'IraqComm-2008-06-11T08-52-50-421-068'
p1483
aS'IraqComm-2008-06-11T08-52-50-421-070'
p1484
aS'IraqComm-2008-06-11T09-26-23-140-001'
p1485
aS'IraqComm-2008-06-11T09-26-23-140-003'
p1486
aS'IraqComm-2008-06-11T09-26-23-140-005'
p1487
aS'IraqComm-2008-06-11T09-26-23-140-006'
p1488
aS'IraqComm-2008-06-11T09-26-23-140-008'
p1489
aS'IraqComm-2008-06-11T09-26-23-140-010'
p1490
aS'IraqComm-2008-06-11T09-26-23-140-012'
p1491
aS'IraqComm-2008-06-11T09-26-23-140-014'
p1492
aS'IraqComm-2008-06-11T09-26-23-140-016'
p1493
aS'IraqComm-2008-06-11T09-26-23-140-018'
p1494
aS'IraqComm-2008-06-11T09-26-23-140-020'
p1495
aS'IraqComm-2008-06-11T09-26-23-140-021'
p1496
aS'IraqComm-2008-06-11T09-26-23-140-023'
p1497
aS'IraqComm-2008-06-11T09-26-23-140-025'
p1498
aS'IraqComm-2008-06-11T09-26-23-140-029'
p1499
aS'IraqComm-2008-06-11T09-26-23-140-035'
p1500
aS'IraqComm-2008-06-11T09-26-23-140-037'
p1501
aS'IraqComm-2008-06-11T09-26-23-140-039'
p1502
aS'IraqComm-2008-06-11T09-26-23-140-041'
p1503
aS'IraqComm-2008-06-11T09-26-23-140-045'
p1504
aS'IraqComm-2008-06-11T09-26-23-140-047'
p1505
aS'IraqComm-2008-06-11T09-26-23-140-051'
p1506
aS'IraqComm-2008-06-11T09-26-23-140-054'
p1507
aS'IraqComm-2008-06-11T11-23-44-140-001'
p1508
aS'IraqComm-2008-06-11T11-23-44-140-002'
p1509
aS'IraqComm-2008-06-11T11-23-44-140-003'
p1510
aS'IraqComm-2008-06-11T11-23-44-140-009'
p1511
aS'IraqComm-2008-06-11T11-23-44-140-013'
p1512
aS'IraqComm-2008-06-11T11-23-44-140-017'
p1513
aS'IraqComm-2008-06-11T11-23-44-140-019'
p1514
aS'IraqComm-2008-06-11T11-23-44-140-024'
p1515
aS'IraqComm-2008-06-11T11-23-44-140-026'
p1516
aS'IraqComm-2008-06-11T11-23-44-140-030'
p1517
aS'IraqComm-2008-06-11T11-23-44-140-031'
p1518
aS'IraqComm-2008-06-11T11-23-44-140-033'
p1519
aS'IraqComm-2008-06-11T11-23-44-140-037'
p1520
aS'IraqComm-2008-06-11T11-23-44-140-039'
p1521
aS'IraqComm-2008-06-11T11-23-44-140-045'
p1522
aS'IraqComm-2008-06-11T11-23-44-140-049'
p1523
aS'IraqComm-2008-06-11T11-23-44-140-059'
p1524
aS'IraqComm-2008-06-11T11-23-44-140-061'
p1525
aS'IraqComm-2008-06-11T11-23-44-140-063'
p1526
aS'IraqComm-2008-06-11T11-23-44-140-069'
p1527
aS'IraqComm-2008-06-11T11-50-42-296-002'
p1528
aS'IraqComm-2008-06-11T11-50-42-296-003'
p1529
aS'IraqComm-2008-06-11T11-50-42-296-005'
p1530
aS'IraqComm-2008-06-11T11-50-42-296-007'
p1531
aS'IraqComm-2008-06-11T11-50-42-296-008'
p1532
aS'IraqComm-2008-06-11T11-50-42-296-012'
p1533
aS'IraqComm-2008-06-11T11-50-42-296-017'
p1534
aS'IraqComm-2008-06-11T11-50-42-296-019'
p1535
aS'IraqComm-2008-06-11T11-50-42-296-021'
p1536
aS'IraqComm-2008-06-11T11-50-42-296-023'
p1537
aS'IraqComm-2008-06-11T11-50-42-296-027'
p1538
aS'IraqComm-2008-06-11T11-50-42-296-029'
p1539
aS'IraqComm-2008-06-11T11-50-42-296-031'
p1540
aS'IraqComm-2008-06-11T11-50-42-296-033'
p1541
aS'IraqComm-2008-06-11T11-50-42-296-035'
p1542
aS'IraqComm-2008-06-11T11-50-42-296-037'
p1543
aS'IraqComm-2008-06-11T11-50-42-296-039'
p1544
aS'IraqComm-2008-06-11T11-50-42-296-041'
p1545
aS'IraqComm-2008-06-11T11-50-42-296-043'
p1546
aS'IraqComm-2008-06-11T11-50-42-296-045'
p1547
aS'IraqComm-2008-06-11T11-50-42-296-047'
p1548
aS'IraqComm-2008-06-11T11-50-42-296-049'
p1549
aS'IraqComm-2008-06-11T11-50-42-296-055'
p1550
aS'IraqComm-2008-06-11T11-50-42-296-057'
p1551
aS'IraqComm-2008-06-11T11-50-42-296-058'
p1552
aS'IraqComm-2008-06-11T11-50-42-296-060'
p1553
aS'IraqComm-2008-06-11T11-50-42-296-062'
p1554
aS'IraqComm-2008-06-11T11-50-42-296-066'
p1555
aS'IraqComm-2008-06-11T11-50-42-296-068'
p1556
aS'IraqComm-2008-06-11T11-50-42-296-072'
p1557
aS'IraqComm-2008-06-11T11-50-42-296-073'
p1558
aS'IraqComm-2008-06-11T12-23-14-734-010'
p1559
aS'IraqComm-2008-06-11T12-23-14-734-012'
p1560
aS'IraqComm-2008-06-11T12-23-14-734-013'
p1561
aS'IraqComm-2008-06-11T12-23-14-734-014'
p1562
aS'IraqComm-2008-06-11T12-23-14-734-015'
p1563
aS'IraqComm-2008-06-11T12-23-14-734-017'
p1564
aS'IraqComm-2008-06-11T12-23-14-734-018'
p1565
aS'IraqComm-2008-06-11T12-23-14-734-022'
p1566
aS'IraqComm-2008-06-11T12-23-14-734-028'
p1567
aS'IraqComm-2008-06-11T12-23-14-734-029'
p1568
aS'IraqComm-2008-06-11T12-23-14-734-033'
p1569
aS'IraqComm-2008-06-11T12-23-14-734-034'
p1570
aS'IraqComm-2008-06-11T12-23-14-734-037'
p1571
aS'IraqComm-2008-06-11T12-23-14-734-039'
p1572
aS'IraqComm-2008-06-11T12-23-14-734-044'
p1573
aS'IraqComm-2008-06-11T12-23-14-734-045'
p1574
aS'IraqComm-2008-06-11T12-23-14-734-050'
p1575
aS'IraqComm-2008-06-11T12-23-14-734-052'
p1576
aS'IraqComm-2008-06-11T12-23-14-734-058'
p1577
aS'IraqComm-2008-06-11T12-23-14-734-060'
p1578
aS'IraqComm-2008-06-11T12-23-14-734-064'
p1579
aS'IraqComm-2008-06-11T12-23-14-734-066'
p1580
aS'IraqComm-2008-06-11T12-23-14-734-068'
p1581
aS'IraqComm-2008-06-11T13-30-58-500-001'
p1582
aS'IraqComm-2008-06-11T13-30-58-500-005'
p1583
aS'IraqComm-2008-06-11T13-30-58-500-007'
p1584
aS'IraqComm-2008-06-11T13-30-58-500-012'
p1585
aS'IraqComm-2008-06-11T13-30-58-500-013'
p1586
aS'IraqComm-2008-06-11T13-30-58-500-016'
p1587
aS'IraqComm-2008-06-11T13-30-58-500-018'
p1588
aS'IraqComm-2008-06-11T13-30-58-500-020'
p1589
aS'IraqComm-2008-06-11T13-30-58-500-022'
p1590
aS'IraqComm-2008-06-11T13-30-58-500-024'
p1591
aS'IraqComm-2008-06-11T13-30-58-500-028'
p1592
aS'IraqComm-2008-06-11T13-30-58-500-032'
p1593
aS'IraqComm-2008-06-11T13-30-58-500-034'
p1594
aS'IraqComm-2008-06-11T13-30-58-500-036'
p1595
aS'IraqComm-2008-06-11T13-30-58-500-040'
p1596
aS'IraqComm-2008-06-11T13-30-58-500-044'
p1597
aS'IraqComm-2008-06-11T13-30-58-500-046'
p1598
aS'IraqComm-2008-06-11T13-30-58-500-049'
p1599
aS'IraqComm-2008-06-11T13-30-58-500-051'
p1600
aS'IraqComm-2008-06-11T13-30-58-500-052'
p1601
aS'IraqComm-2008-06-11T13-30-58-500-054'
p1602
aS'IraqComm-2008-06-11T13-30-58-500-055'
p1603
aS'IraqComm-2008-06-11T13-30-58-500-057'
p1604
aS'IraqComm-2008-06-11T13-30-58-500-061'
p1605
aS'IraqComm-2008-06-11T13-30-58-500-063'
p1606
aS'IraqComm-2008-06-11T13-30-58-500-064'
p1607
aS'IraqComm-2008-06-11T13-30-58-500-072'
p1608
aS'IraqComm-2008-06-11T13-30-58-500-074'
p1609
aS'IraqComm-2008-06-11T13-30-58-500-075'
p1610
aS'IraqComm-2008-06-11T14-00-23-421-001'
p1611
aS'IraqComm-2008-06-11T14-00-23-421-002'
p1612
aS'IraqComm-2008-06-11T14-00-23-421-003'
p1613
aS'IraqComm-2008-06-11T14-00-23-421-005'
p1614
aS'IraqComm-2008-06-11T14-00-23-421-006'
p1615
aS'IraqComm-2008-06-11T14-00-23-421-008'
p1616
aS'IraqComm-2008-06-11T14-00-23-421-010'
p1617
aS'IraqComm-2008-06-11T14-00-23-421-012'
p1618
aS'IraqComm-2008-06-11T14-00-23-421-014'
p1619
aS'IraqComm-2008-06-11T14-00-23-421-015'
p1620
aS'IraqComm-2008-06-11T14-00-23-421-018'
p1621
aS'IraqComm-2008-06-11T14-00-23-421-024'
p1622
aS'IraqComm-2008-06-11T14-00-23-421-032'
p1623
aS'IraqComm-2008-06-11T14-00-23-421-034'
p1624
aS'IraqComm-2008-06-11T14-00-23-421-035'
p1625
aS'IraqComm-2008-06-11T14-00-23-421-039'
p1626
aS'IraqComm-2008-06-11T14-00-23-421-041'
p1627
aS'IraqComm-2008-06-11T14-00-23-421-043'
p1628
aS'IraqComm-2008-06-11T14-00-23-421-049'
p1629
aS'IraqComm-2008-06-11T14-00-23-421-055'
p1630
aS'IraqComm-2008-06-11T14-00-23-421-061'
p1631
aS'IraqComm-2008-06-11T14-00-23-421-063'
p1632
aS'IraqComm-2008-06-11T14-00-23-421-065'
p1633
aS'IraqComm-2008-06-11T14-00-23-421-071'
p1634
aS'IraqComm-2008-06-11T14-26-06-625-001'
p1635
aS'IraqComm-2008-06-11T14-26-06-625-003'
p1636
aS'IraqComm-2008-06-11T14-26-06-625-004'
p1637
aS'IraqComm-2008-06-11T14-26-06-625-006'
p1638
aS'IraqComm-2008-06-11T14-26-06-625-007'
p1639
aS'IraqComm-2008-06-11T14-26-06-625-009'
p1640
aS'IraqComm-2008-06-11T14-26-06-625-011'
p1641
aS'IraqComm-2008-06-11T14-26-06-625-013'
p1642
aS'IraqComm-2008-06-11T14-26-06-625-015'
p1643
aS'IraqComm-2008-06-11T14-26-06-625-016'
p1644
aS'IraqComm-2008-06-11T14-26-06-625-026'
p1645
aS'IraqComm-2008-06-11T14-26-06-625-029'
p1646
aS'IraqComm-2008-06-11T14-26-06-625-032'
p1647
aS'IraqComm-2008-06-11T14-26-06-625-041'
p1648
aS'IraqComm-2008-06-11T14-26-06-625-052'
p1649
aS'IraqComm-2008-06-11T14-26-06-625-054'
p1650
aS'IraqComm-2008-06-11T14-26-06-625-056'
p1651
aS'IraqComm-2008-06-11T14-26-06-625-057'
p1652
aS'IraqComm-2008-06-11T14-26-06-625-065'
p1653
aS'IraqComm-2008-06-11T14-26-06-625-067'
p1654
aS'IraqComm-2008-06-11T14-26-06-625-068'
p1655
aS'IraqComm-2008-06-11T14-26-06-625-070'
p1656
aS'IraqComm-2008-06-12T05-50-44-843-002'
p1657
aS'IraqComm-2008-06-12T05-50-44-843-004'
p1658
aS'IraqComm-2008-06-12T05-50-44-843-006'
p1659
aS'IraqComm-2008-06-12T05-50-44-843-008'
p1660
aS'IraqComm-2008-06-12T05-50-44-843-009'
p1661
aS'IraqComm-2008-06-12T05-50-44-843-011'
p1662
aS'IraqComm-2008-06-12T05-50-44-843-015'
p1663
aS'IraqComm-2008-06-12T05-50-44-843-017'
p1664
aS'IraqComm-2008-06-12T05-50-44-843-019'
p1665
aS'IraqComm-2008-06-12T05-50-44-843-021'
p1666
aS'IraqComm-2008-06-12T05-50-44-843-023'
p1667
aS'IraqComm-2008-06-12T05-50-44-843-025'
p1668
aS'IraqComm-2008-06-12T05-50-44-843-027'
p1669
aS'IraqComm-2008-06-12T05-50-44-843-029'
p1670
aS'IraqComm-2008-06-12T05-50-44-843-031'
p1671
aS'IraqComm-2008-06-12T05-50-44-843-039'
p1672
aS'IraqComm-2008-06-12T05-50-44-843-041'
p1673
aS'IraqComm-2008-06-12T05-50-44-843-043'
p1674
aS'IraqComm-2008-06-12T05-50-44-843-045'
p1675
aS'IraqComm-2008-06-12T05-50-44-843-047'
p1676
aS'IraqComm-2008-06-12T05-50-44-843-049'
p1677
aS'IraqComm-2008-06-12T05-50-44-843-051'
p1678
aS'IraqComm-2008-06-12T05-50-44-843-060'
p1679
aS'IraqComm-2008-06-12T05-50-44-843-062'
p1680
aS'IraqComm-2008-06-12T05-50-44-843-064'
p1681
aS'IraqComm-2008-06-12T05-50-44-843-065'
p1682
aS'IraqComm-2008-06-12T05-50-44-843-069'
p1683
aS'IraqComm-2008-06-12T06-12-04-656-003'
p1684
aS'IraqComm-2008-06-12T06-12-04-656-005'
p1685
aS'IraqComm-2008-06-12T06-12-04-656-006'
p1686
aS'IraqComm-2008-06-12T06-12-04-656-009'
p1687
aS'IraqComm-2008-06-12T06-12-04-656-010'
p1688
aS'IraqComm-2008-06-12T06-12-04-656-012'
p1689
aS'IraqComm-2008-06-12T06-12-04-656-014'
p1690
aS'IraqComm-2008-06-12T06-12-04-656-017'
p1691
aS'IraqComm-2008-06-12T06-12-04-656-021'
p1692
aS'IraqComm-2008-06-12T06-12-04-656-030'
p1693
aS'IraqComm-2008-06-12T06-12-04-656-038'
p1694
aS'IraqComm-2008-06-12T06-12-04-656-046'
p1695
aS'IraqComm-2008-06-12T06-12-04-656-052'
p1696
aS'IraqComm-2008-06-12T06-12-04-656-055'
p1697
aS'IraqComm-2008-06-12T06-12-04-656-056'
p1698
aS'IraqComm-2008-06-12T06-45-07-093-001'
p1699
aS'IraqComm-2008-06-12T06-45-07-093-004'
p1700
aS'IraqComm-2008-06-12T06-45-07-093-005'
p1701
aS'IraqComm-2008-06-12T06-45-07-093-007'
p1702
aS'IraqComm-2008-06-12T06-45-07-093-009'
p1703
aS'IraqComm-2008-06-12T06-45-07-093-013'
p1704
aS'IraqComm-2008-06-12T06-45-07-093-017'
p1705
aS'IraqComm-2008-06-12T06-45-07-093-019'
p1706
aS'IraqComm-2008-06-12T06-45-07-093-021'
p1707
aS'IraqComm-2008-06-12T06-45-07-093-023'
p1708
aS'IraqComm-2008-06-12T06-45-07-093-025'
p1709
aS'IraqComm-2008-06-12T06-45-07-093-030'
p1710
aS'IraqComm-2008-06-12T06-45-07-093-032'
p1711
aS'IraqComm-2008-06-12T06-45-07-093-033'
p1712
aS'IraqComm-2008-06-12T06-45-07-093-035'
p1713
aS'IraqComm-2008-06-12T06-45-07-093-037'
p1714
aS'IraqComm-2008-06-12T06-45-07-093-039'
p1715
aS'IraqComm-2008-06-12T06-45-07-093-043'
p1716
aS'IraqComm-2008-06-12T06-45-07-093-051'
p1717
aS'IraqComm-2008-06-12T06-45-07-093-053'
p1718
aS'IraqComm-2008-06-12T06-45-07-093-054'
p1719
aS'IraqComm-2008-06-12T07-59-22-093-001'
p1720
aS'IraqComm-2008-06-12T07-59-22-093-003'
p1721
aS'IraqComm-2008-06-12T07-59-22-093-005'
p1722
aS'IraqComm-2008-06-12T07-59-22-093-009'
p1723
aS'IraqComm-2008-06-12T07-59-22-093-011'
p1724
aS'IraqComm-2008-06-12T07-59-22-093-013'
p1725
aS'IraqComm-2008-06-12T07-59-22-093-015'
p1726
aS'IraqComm-2008-06-12T07-59-22-093-016'
p1727
aS'IraqComm-2008-06-12T07-59-22-093-018'
p1728
aS'IraqComm-2008-06-12T07-59-22-093-022'
p1729
aS'IraqComm-2008-06-12T07-59-22-093-024'
p1730
aS'IraqComm-2008-06-12T07-59-22-093-026'
p1731
aS'IraqComm-2008-06-12T07-59-22-093-027'
p1732
aS'IraqComm-2008-06-12T07-59-22-093-033'
p1733
aS'IraqComm-2008-06-12T07-59-22-093-035'
p1734
aS'IraqComm-2008-06-12T07-59-22-093-037'
p1735
aS'IraqComm-2008-06-12T07-59-22-093-041'
p1736
aS'IraqComm-2008-06-12T07-59-22-093-043'
p1737
aS'IraqComm-2008-06-12T07-59-22-093-045'
p1738
aS'IraqComm-2008-06-12T07-59-22-093-047'
p1739
aS'IraqComm-2008-06-12T07-59-22-093-051'
p1740
aS'IraqComm-2008-06-12T07-59-22-093-053'
p1741
aS'IraqComm-2008-06-12T07-59-22-093-057'
p1742
aS'IraqComm-2008-06-12T07-59-22-093-061'
p1743
aS'IraqComm-2008-06-12T07-59-22-093-063'
p1744
aS'IraqComm-2008-06-12T07-59-22-093-065'
p1745
aS'IraqComm-2008-06-12T07-59-22-093-067'
p1746
aS'IraqComm-2008-06-12T07-59-22-093-069'
p1747
aS'IraqComm-2008-06-12T07-59-22-093-071'
p1748
aS'IraqComm-2008-06-12T07-59-22-093-073'
p1749
aS'IraqComm-2008-06-12T07-59-22-093-075'
p1750
aS'IraqComm-2008-06-12T08-39-23-109-001'
p1751
aS'IraqComm-2008-06-12T08-39-23-109-002'
p1752
aS'IraqComm-2008-06-12T08-39-23-109-004'
p1753
aS'IraqComm-2008-06-12T08-39-23-109-006'
p1754
aS'IraqComm-2008-06-12T08-39-23-109-011'
p1755
aS'IraqComm-2008-06-12T08-39-23-109-014'
p1756
aS'IraqComm-2008-06-12T08-39-23-109-015'
p1757
aS'IraqComm-2008-06-12T08-39-23-109-017'
p1758
aS'IraqComm-2008-06-12T08-39-23-109-019'
p1759
aS'IraqComm-2008-06-12T08-39-23-109-020'
p1760
aS'IraqComm-2008-06-12T08-39-23-109-021'
p1761
aS'IraqComm-2008-06-12T08-39-23-109-023'
p1762
aS'IraqComm-2008-06-12T08-39-23-109-024'
p1763
aS'IraqComm-2008-06-12T08-39-23-109-026'
p1764
aS'IraqComm-2008-06-12T08-39-23-109-027'
p1765
aS'IraqComm-2008-06-12T08-39-23-109-028'
p1766
aS'IraqComm-2008-06-12T08-39-23-109-030'
p1767
aS'IraqComm-2008-06-12T08-39-23-109-032'
p1768
aS'IraqComm-2008-06-12T08-39-23-109-034'
p1769
aS'IraqComm-2008-06-12T08-39-23-109-036'
p1770
aS'IraqComm-2008-06-12T08-39-23-109-038'
p1771
aS'IraqComm-2008-06-12T08-39-23-109-047'
p1772
aS'IraqComm-2008-06-12T08-39-23-109-053'
p1773
aS'IraqComm-2008-06-12T08-39-23-109-056'
p1774
aS'IraqComm-2008-06-12T08-39-23-109-057'
p1775
aS'IraqComm-2008-06-12T08-39-23-109-064'
p1776
aS'IraqComm-2008-06-12T08-39-23-109-073'
p1777
aS'IraqComm-2008-06-12T08-39-23-109-079'
p1778
aS'IraqComm-2008-06-12T08-39-23-109-080'
p1779
aS'IraqComm-2008-06-12T08-39-23-109-084'
p1780
aS'IraqComm-2008-06-12T08-39-23-109-085'
p1781
aS'IraqComm-2008-06-12T09-04-41-593-003'
p1782
aS'IraqComm-2008-06-12T09-04-41-593-005'
p1783
aS'IraqComm-2008-06-12T09-04-41-593-007'
p1784
aS'IraqComm-2008-06-12T09-04-41-593-010'
p1785
aS'IraqComm-2008-06-12T09-04-41-593-021'
p1786
aS'IraqComm-2008-06-12T09-04-41-593-023'
p1787
aS'IraqComm-2008-06-12T09-04-41-593-025'
p1788
aS'IraqComm-2008-06-12T09-04-41-593-028'
p1789
aS'IraqComm-2008-06-12T09-04-41-593-030'
p1790
aS'IraqComm-2008-06-12T09-04-41-593-032'
p1791
aS'IraqComm-2008-06-12T09-04-41-593-034'
p1792
aS'IraqComm-2008-06-12T09-04-41-593-036'
p1793
aS'IraqComm-2008-06-12T09-04-41-593-038'
p1794
aS'IraqComm-2008-06-12T09-04-41-593-040'
p1795
aS'IraqComm-2008-06-12T09-04-41-593-042'
p1796
aS'IraqComm-2008-06-12T09-04-41-593-044'
p1797
aS'IraqComm-2008-06-12T09-04-41-593-048'
p1798
aS'IraqComm-2008-06-12T09-04-41-593-050'
p1799
aS'IraqComm-2008-06-12T09-04-41-593-052'
p1800
aS'IraqComm-2008-06-12T09-04-41-593-054'
p1801
aS'IraqComm-2008-06-12T09-04-41-593-056'
p1802
aS'IraqComm-2008-06-12T09-04-41-593-060'
p1803
aS'IraqComm-2008-06-12T09-04-41-593-062'
p1804
aS'IraqComm-2008-06-12T09-04-41-593-064'
p1805
aS'IraqComm-2008-06-12T09-04-41-593-066'
p1806
aS'IraqComm-2008-06-12T09-04-41-593-068'
p1807
aS'IraqComm-2008-06-12T09-04-41-593-070'
p1808
aS'IraqComm-2008-06-12T14-37-33-203-001'
p1809
aS'IraqComm-2008-06-12T14-37-33-203-002'
p1810
aS'IraqComm-2008-06-12T14-37-33-203-004'
p1811
aS'IraqComm-2008-06-12T14-37-33-203-006'
p1812
aS'IraqComm-2008-06-12T14-37-33-203-008'
p1813
aS'IraqComm-2008-06-12T14-37-33-203-012'
p1814
aS'IraqComm-2008-06-12T14-37-33-203-013'
p1815
aS'IraqComm-2008-06-12T14-37-33-203-015'
p1816
aS'IraqComm-2008-06-12T14-37-33-203-017'
p1817
aS'IraqComm-2008-06-12T14-37-33-203-019'
p1818
aS'IraqComm-2008-06-12T14-37-33-203-021'
p1819
aS'IraqComm-2008-06-12T14-37-33-203-023'
p1820
aS'IraqComm-2008-06-12T14-37-33-203-027'
p1821
aS'IraqComm-2008-06-12T14-37-33-203-029'
p1822
aS'IraqComm-2008-06-12T14-37-33-203-033'
p1823
aS'IraqComm-2008-06-12T14-37-33-203-035'
p1824
aS'IraqComm-2008-06-12T14-37-33-203-037'
p1825
aS'IraqComm-2008-06-12T14-37-33-203-039'
p1826
aS'IraqComm-2008-06-12T14-37-33-203-041'
p1827
aS'IraqComm-2008-06-12T14-37-33-203-043'
p1828
aS'IraqComm-2008-06-12T14-37-33-203-047'
p1829
aS'IraqComm-2008-06-12T14-37-33-203-049'
p1830
aS'IraqComm-2008-06-12T14-37-33-203-051'
p1831
aS'IraqComm-2008-06-12T14-37-33-203-053'
p1832
aS'IraqComm-2008-06-12T14-37-33-203-055'
p1833
aS'IraqComm-2008-06-12T14-37-33-203-057'
p1834
aS'IraqComm-2008-06-12T14-37-33-203-059'
p1835
aS'IraqComm-2008-06-12T14-37-33-203-061'
p1836
aS'IraqComm-2008-06-12T14-37-33-203-063'
p1837
aS'IraqComm-2008-06-12T14-37-33-203-065'
p1838
aS'IraqComm-2008-06-12T14-37-33-203-067'
p1839
aS'IraqComm-2008-06-12T14-37-33-203-069'
p1840
aS'IraqComm-2008-06-12T14-37-33-203-071'
p1841
aS'IraqComm-2008-06-12T14-37-33-203-075'
p1842
aS'IraqComm-2008-06-12T14-37-33-203-077'
p1843
aS'DariComm-2009-06-23T07-00-35-875-006'
p1844
aS'DariComm-2009-06-23T07-00-35-875-018'
p1845
aS'DariComm-2009-06-23T07-00-35-875-023'
p1846
aS'DariComm-2009-06-23T07-00-35-875-030'
p1847
aS'DariComm-2009-06-23T07-00-35-875-032'
p1848
aS'DariComm-2009-06-23T07-00-35-875-036'
p1849
aS'DariComm-2009-06-23T07-00-35-875-041'
p1850
aS'DariComm-2009-06-23T07-00-35-875-045'
p1851
aS'DariComm-2009-06-23T07-00-35-875-047'
p1852
aS'DariComm-2009-06-23T07-00-35-875-051'
p1853
aS'DariComm-2009-06-23T07-00-35-875-053'
p1854
aS'DariComm-2009-06-23T07-00-35-875-054'
p1855
aS'DariComm-2009-06-23T07-00-35-875-057'
p1856
aS'DariComm-2009-06-23T07-00-35-875-060'
p1857
aS'DariComm-2009-06-23T07-00-35-875-064'
p1858
aS'DariComm-2009-06-23T07-00-35-875-068'
p1859
aS'DariComm-2009-06-23T07-00-35-875-070'
p1860
aS'DariComm-2009-06-23T07-00-35-875-074'
p1861
aS'DariComm-2009-06-23T07-00-35-875-076'
p1862
aS'DariComm-2009-06-23T07-00-35-875-080'
p1863
aS'DariComm-2009-06-23T07-00-35-875-082'
p1864
aS'DariComm-2009-06-23T07-45-57-843-002'
p1865
aS'DariComm-2009-06-23T07-45-57-843-003'
p1866
aS'DariComm-2009-06-23T07-45-57-843-004'
p1867
aS'DariComm-2009-06-23T07-45-57-843-005'
p1868
aS'DariComm-2009-06-23T07-45-57-843-007'
p1869
aS'DariComm-2009-06-23T07-45-57-843-011'
p1870
aS'DariComm-2009-06-23T07-45-57-843-012'
p1871
aS'DariComm-2009-06-23T07-45-57-843-016'
p1872
aS'DariComm-2009-06-23T07-45-57-843-018'
p1873
aS'DariComm-2009-06-23T07-45-57-843-021'
p1874
aS'DariComm-2009-06-23T07-45-57-843-025'
p1875
aS'DariComm-2009-06-23T07-45-57-843-027'
p1876
aS'DariComm-2009-06-23T07-45-57-843-041'
p1877
aS'DariComm-2009-06-23T07-45-57-843-047'
p1878
aS'DariComm-2009-06-23T07-45-57-843-049'
p1879
aS'DariComm-2009-06-23T07-45-57-843-051'
p1880
aS'DariComm-2009-06-23T07-45-57-843-058'
p1881
aS'DariComm-2009-06-23T07-45-57-843-062'
p1882
aS'DariComm-2009-06-23T07-45-57-843-067'
p1883
aS'DariComm-2009-06-23T07-45-57-843-069'
p1884
aS'DariComm-2009-06-23T07-45-57-843-071'
p1885
aS'DariComm-2009-06-23T07-45-57-843-073'
p1886
aS'DariComm-2009-06-23T07-45-57-843-075'
p1887
aS'DariComm-2009-06-23T08-21-08-234-001'
p1888
aS'DariComm-2009-06-23T08-21-08-234-003'
p1889
aS'DariComm-2009-06-23T08-21-08-234-005'
p1890
aS'DariComm-2009-06-23T08-21-08-234-006'
p1891
aS'DariComm-2009-06-23T08-21-08-234-007'
p1892
aS'DariComm-2009-06-23T08-21-08-234-009'
p1893
aS'DariComm-2009-06-23T08-21-08-234-011'
p1894
aS'DariComm-2009-06-23T08-21-08-234-012'
p1895
aS'DariComm-2009-06-23T08-21-08-234-013'
p1896
aS'DariComm-2009-06-23T08-21-08-234-015'
p1897
aS'DariComm-2009-06-23T08-21-08-234-017'
p1898
aS'DariComm-2009-06-23T08-21-08-234-019'
p1899
aS'DariComm-2009-06-23T08-21-08-234-023'
p1900
aS'DariComm-2009-06-23T08-21-08-234-025'
p1901
aS'DariComm-2009-06-23T08-21-08-234-026'
p1902
aS'DariComm-2009-06-23T08-21-08-234-028'
p1903
aS'DariComm-2009-06-23T08-21-08-234-030'
p1904
aS'DariComm-2009-06-23T08-21-08-234-032'
p1905
aS'DariComm-2009-06-23T08-21-08-234-034'
p1906
aS'DariComm-2009-06-23T08-21-08-234-036'
p1907
aS'DariComm-2009-06-23T08-21-08-234-038'
p1908
aS'DariComm-2009-06-23T08-21-08-234-040'
p1909
aS'DariComm-2009-06-23T08-21-08-234-042'
p1910
aS'DariComm-2009-06-23T08-21-08-234-044'
p1911
aS'DariComm-2009-06-23T08-21-08-234-046'
p1912
aS'DariComm-2009-06-23T08-21-08-234-047'
p1913
aS'DariComm-2009-06-23T08-21-08-234-049'
p1914
aS'DariComm-2009-06-23T08-21-08-234-051'
p1915
aS'DariComm-2009-06-23T08-21-08-234-054'
p1916
aS'DariComm-2009-06-23T08-21-08-234-056'
p1917
aS'DariComm-2009-06-23T08-21-08-234-058'
p1918
aS'DariComm-2009-06-23T08-21-08-234-061'
p1919
aS'DariComm-2009-06-23T08-21-08-234-063'
p1920
aS'DariComm-2009-06-23T08-21-08-234-064'
p1921
aS'DariComm-2009-06-23T08-21-08-234-067'
p1922
aS'DariComm-2009-06-23T08-21-08-234-069'
p1923
aS'DariComm-2009-06-23T08-21-08-234-071'
p1924
aS'DariComm-2009-06-23T08-21-08-234-074'
p1925
aS'DariComm-2009-06-23T08-21-08-234-079'
p1926
aS'DariComm-2009-06-23T08-21-08-234-081'
p1927
aS'DariComm-2009-06-23T08-21-08-234-083'
p1928
aS'DariComm-2009-06-23T08-21-08-234-085'
p1929
aS'DariComm-2009-06-23T08-21-08-234-086'
p1930
aS'DariComm-2009-06-23T08-21-08-234-088'
p1931
aS'DariComm-2009-06-23T08-21-08-234-091'
p1932
aS'DariComm-2009-06-23T08-21-08-234-093'
p1933
aS'DariComm-2009-06-23T08-21-08-234-095'
p1934
aS'DariComm-2009-06-23T08-21-08-234-097'
p1935
aS'DariComm-2009-06-23T08-21-08-234-103'
p1936
aS'DariComm-2009-06-23T08-21-08-234-105'
p1937
aS'DariComm-2009-06-23T10-52-27-296-001'
p1938
aS'DariComm-2009-06-23T10-52-27-296-002'
p1939
aS'DariComm-2009-06-23T10-52-27-296-006'
p1940
aS'DariComm-2009-06-23T10-52-27-296-008'
p1941
aS'DariComm-2009-06-23T10-52-27-296-010'
p1942
aS'DariComm-2009-06-23T10-52-27-296-011'
p1943
aS'DariComm-2009-06-23T10-52-27-296-013'
p1944
aS'DariComm-2009-06-23T10-52-27-296-014'
p1945
aS'DariComm-2009-06-23T10-52-27-296-017'
p1946
aS'DariComm-2009-06-23T10-52-27-296-019'
p1947
aS'DariComm-2009-06-23T10-52-27-296-021'
p1948
aS'DariComm-2009-06-23T10-52-27-296-033'
p1949
aS'DariComm-2009-06-23T10-52-27-296-037'
p1950
aS'DariComm-2009-06-23T10-52-27-296-038'
p1951
aS'DariComm-2009-06-23T10-52-27-296-040'
p1952
aS'DariComm-2009-06-23T10-52-27-296-043'
p1953
aS'DariComm-2009-06-23T10-52-27-296-047'
p1954
aS'DariComm-2009-06-23T10-52-27-296-048'
p1955
aS'DariComm-2009-06-23T10-52-27-296-050'
p1956
aS'DariComm-2009-06-23T10-52-27-296-053'
p1957
aS'DariComm-2009-06-23T10-52-27-296-054'
p1958
aS'DariComm-2009-06-23T10-52-27-296-057'
p1959
aS'DariComm-2009-06-23T10-52-27-296-059'
p1960
aS'DariComm-2009-06-23T10-52-27-296-061'
p1961
aS'DariComm-2009-06-23T10-52-27-296-064'
p1962
aS'DariComm-2009-06-23T10-52-27-296-071'
p1963
aS'DariComm-2009-06-23T10-52-27-296-073'
p1964
aS'DariComm-2009-06-23T10-52-27-296-074'
p1965
aS'DariComm-2009-06-23T10-52-27-296-077'
p1966
aS'DariComm-2009-06-23T10-52-27-296-079'
p1967
aS'DariComm-2009-06-23T10-52-27-296-083'
p1968
aS'DariComm-2009-06-23T10-52-27-296-088'
p1969
aS'DariComm-2009-06-23T10-52-27-296-092'
p1970
aS'DariComm-2009-06-23T10-52-27-296-094'
p1971
aS'DariComm-2009-06-23T10-52-27-296-096'
p1972
aS'DariComm-2009-06-23T10-52-27-296-098'
p1973
aS'DariComm-2009-06-23T11-29-57-609-005'
p1974
aS'DariComm-2009-06-23T11-29-57-609-008'
p1975
aS'DariComm-2009-06-23T11-29-57-609-010'
p1976
aS'DariComm-2009-06-23T11-29-57-609-012'
p1977
aS'DariComm-2009-06-23T11-29-57-609-018'
p1978
aS'DariComm-2009-06-23T11-29-57-609-020'
p1979
aS'DariComm-2009-06-23T11-29-57-609-022'
p1980
aS'DariComm-2009-06-23T11-29-57-609-024'
p1981
aS'DariComm-2009-06-23T11-29-57-609-026'
p1982
aS'DariComm-2009-06-23T11-29-57-609-030'
p1983
aS'DariComm-2009-06-23T11-29-57-609-032'
p1984
aS'DariComm-2009-06-23T11-29-57-609-034'
p1985
aS'DariComm-2009-06-23T11-29-57-609-036'
p1986
aS'DariComm-2009-06-23T11-29-57-609-038'
p1987
aS'DariComm-2009-06-23T11-29-57-609-040'
p1988
aS'DariComm-2009-06-23T11-29-57-609-044'
p1989
aS'DariComm-2009-06-23T11-29-57-609-048'
p1990
aS'DariComm-2009-06-23T11-29-57-609-050'
p1991
aS'DariComm-2009-06-23T11-29-57-609-054'
p1992
aS'DariComm-2009-06-23T11-29-57-609-056'
p1993
aS'DariComm-2009-06-23T11-29-57-609-058'
p1994
aS'DariComm-2009-06-23T11-29-57-609-060'
p1995
aS'DariComm-2009-06-23T11-29-57-609-068'
p1996
aS'DariComm-2009-06-23T11-29-57-609-070'
p1997
aS'DariComm-2009-06-23T11-29-57-609-074'
p1998
aS'DariComm-2009-06-23T11-29-57-609-076'
p1999
aS'DariComm-2009-06-23T11-29-57-609-080'
p2000
aS'DariComm-2009-06-23T11-29-57-609-084'
p2001
aS'DariComm-2009-06-23T11-29-57-609-086'
p2002
aS'DariComm-2009-06-23T11-29-57-609-088'
p2003
aS'DariComm-2009-06-23T11-29-57-609-094'
p2004
aS'DariComm-2009-06-23T11-29-57-609-096'
p2005
aS'DariComm-2009-06-23T11-29-57-609-100'
p2006
aS'DariComm-2009-06-23T11-29-57-609-105'
p2007
aS'DariComm-2009-06-23T11-29-57-609-107'
p2008
aS'DariComm-2009-06-23T11-29-57-609-109'
p2009
aS'DariComm-2009-06-23T11-29-57-609-111'
p2010
aS'DariComm-2009-06-23T11-29-57-609-113'
p2011
aS'DariComm-2009-06-23T12-24-14-625-001'
p2012
aS'DariComm-2009-06-23T12-24-14-625-002'
p2013
aS'DariComm-2009-06-23T12-24-14-625-005'
p2014
aS'DariComm-2009-06-23T12-24-14-625-006'
p2015
aS'DariComm-2009-06-23T12-24-14-625-007'
p2016
aS'DariComm-2009-06-23T12-24-14-625-008'
p2017
aS'DariComm-2009-06-23T12-24-14-625-011'
p2018
aS'DariComm-2009-06-23T12-24-14-625-015'
p2019
aS'DariComm-2009-06-23T12-24-14-625-018'
p2020
aS'DariComm-2009-06-23T12-24-14-625-023'
p2021
aS'DariComm-2009-06-23T12-24-14-625-033'
p2022
aS'DariComm-2009-06-23T12-24-14-625-035'
p2023
aS'DariComm-2009-06-23T12-24-14-625-038'
p2024
aS'DariComm-2009-06-23T12-24-14-625-040'
p2025
aS'DariComm-2009-06-23T12-24-14-625-043'
p2026
aS'DariComm-2009-06-23T12-24-14-625-045'
p2027
aS'DariComm-2009-06-23T12-24-14-625-048'
p2028
aS'DariComm-2009-06-23T12-24-14-625-050'
p2029
aS'DariComm-2009-06-23T12-24-14-625-052'
p2030
aS'DariComm-2009-06-23T12-24-14-625-056'
p2031
aS'DariComm-2009-06-23T12-24-14-625-058'
p2032
aS'DariComm-2009-06-23T12-24-14-625-060'
p2033
aS'DariComm-2009-06-23T12-24-14-625-061'
p2034
aS'DariComm-2009-06-23T12-24-14-625-069'
p2035
aS'DariComm-2009-06-23T12-24-14-625-071'
p2036
aS'DariComm-2009-06-23T12-24-14-625-076'
p2037
aS'DariComm-2009-06-23T12-24-14-625-078'
p2038
aS'DariComm-2009-06-23T12-24-14-625-079'
p2039
aS'DariComm-2009-06-23T12-24-14-625-081'
p2040
aS'DariComm-2009-06-23T12-24-14-625-083'
p2041
aS'DariComm-2009-06-23T12-24-14-625-086'
p2042
aS'DariComm-2009-06-23T12-24-14-625-088'
p2043
aS'DariComm-2009-06-23T12-24-14-625-091'
p2044
aS'DariComm-2009-06-23T12-24-14-625-095'
p2045
aS'DariComm-2009-06-23T12-24-14-625-097'
p2046
aS'DariComm-2009-06-23T12-24-14-625-099'
p2047
aS'DariComm-2009-06-23T12-24-14-625-101'
p2048
aS'DariComm-2009-06-23T12-24-14-625-103'
p2049
aS'DariComm-2009-06-23T12-24-14-625-106'
p2050
aS'DariComm-2009-06-24T06-28-47-875-001'
p2051
aS'DariComm-2009-06-24T06-28-47-875-004'
p2052
aS'DariComm-2009-06-24T06-28-47-875-005'
p2053
aS'DariComm-2009-06-24T06-28-47-875-007'
p2054
aS'DariComm-2009-06-24T06-28-47-875-009'
p2055
aS'DariComm-2009-06-24T06-28-47-875-014'
p2056
aS'DariComm-2009-06-24T06-28-47-875-016'
p2057
aS'DariComm-2009-06-24T06-28-47-875-020'
p2058
aS'DariComm-2009-06-24T06-28-47-875-024'
p2059
aS'DariComm-2009-06-24T06-28-47-875-025'
p2060
aS'DariComm-2009-06-24T06-28-47-875-027'
p2061
aS'DariComm-2009-06-24T06-28-47-875-028'
p2062
aS'DariComm-2009-06-24T06-28-47-875-031'
p2063
aS'DariComm-2009-06-24T06-28-47-875-033'
p2064
aS'DariComm-2009-06-24T06-28-47-875-038'
p2065
aS'DariComm-2009-06-24T06-28-47-875-052'
p2066
aS'DariComm-2009-06-24T06-28-47-875-054'
p2067
aS'DariComm-2009-06-24T06-28-47-875-056'
p2068
aS'DariComm-2009-06-24T06-28-47-875-060'
p2069
aS'DariComm-2009-06-24T06-28-47-875-079'
p2070
aS'DariComm-2009-06-24T06-28-47-875-082'
p2071
aS'DariComm-2009-06-24T06-28-47-875-083'
p2072
aS'DariComm-2009-06-24T06-28-47-875-086'
p2073
aS'DariComm-2009-06-24T06-28-47-875-087'
p2074
aS'DariComm-2009-06-24T06-28-47-875-089'
p2075
aS'DariComm-2009-06-24T06-28-47-875-090'
p2076
aS'DariComm-2009-06-24T06-28-47-875-092'
p2077
aS'DariComm-2009-06-24T07-15-40-593-002'
p2078
aS'DariComm-2009-06-24T07-15-40-593-005'
p2079
aS'DariComm-2009-06-24T07-15-40-593-006'
p2080
aS'DariComm-2009-06-24T07-15-40-593-008'
p2081
aS'DariComm-2009-06-24T07-15-40-593-010'
p2082
aS'DariComm-2009-06-24T07-15-40-593-015'
p2083
aS'DariComm-2009-06-24T07-15-40-593-017'
p2084
aS'DariComm-2009-06-24T07-15-40-593-023'
p2085
aS'DariComm-2009-06-24T07-15-40-593-025'
p2086
aS'DariComm-2009-06-24T07-15-40-593-026'
p2087
aS'DariComm-2009-06-24T07-15-40-593-028'
p2088
aS'DariComm-2009-06-24T07-15-40-593-030'
p2089
aS'DariComm-2009-06-24T07-15-40-593-031'
p2090
aS'DariComm-2009-06-24T07-15-40-593-033'
p2091
aS'DariComm-2009-06-24T07-15-40-593-035'
p2092
aS'DariComm-2009-06-24T07-15-40-593-037'
p2093
aS'DariComm-2009-06-24T07-15-40-593-039'
p2094
aS'DariComm-2009-06-24T07-15-40-593-043'
p2095
aS'DariComm-2009-06-24T07-15-40-593-046'
p2096
aS'DariComm-2009-06-24T07-15-40-593-048'
p2097
aS'DariComm-2009-06-24T07-15-40-593-050'
p2098
aS'DariComm-2009-06-24T07-15-40-593-054'
p2099
aS'DariComm-2009-06-24T07-15-40-593-056'
p2100
aS'DariComm-2009-06-24T07-15-40-593-057'
p2101
aS'DariComm-2009-06-24T07-15-40-593-062'
p2102
aS'DariComm-2009-06-24T07-15-40-593-064'
p2103
aS'DariComm-2009-06-24T07-15-40-593-065'
p2104
aS'DariComm-2009-06-24T07-15-40-593-067'
p2105
aS'DariComm-2009-06-24T07-15-40-593-069'
p2106
aS'DariComm-2009-06-24T07-15-40-593-073'
p2107
aS'DariComm-2009-06-24T07-15-40-593-075'
p2108
aS'DariComm-2009-06-24T07-15-40-593-077'
p2109
aS'DariComm-2009-06-24T07-15-40-593-079'
p2110
aS'DariComm-2009-06-24T07-15-40-593-081'
p2111
aS'DariComm-2009-06-24T07-15-40-593-083'
p2112
aS'DariComm-2009-06-24T07-15-40-593-085'
p2113
aS'DariComm-2009-06-24T07-15-40-593-087'
p2114
aS'DariComm-2009-06-24T07-15-40-593-089'
p2115
aS'DariComm-2009-06-24T07-56-54-343-001'
p2116
aS'DariComm-2009-06-24T07-56-54-343-003'
p2117
aS'DariComm-2009-06-24T07-56-54-343-005'
p2118
aS'DariComm-2009-06-24T07-56-54-343-007'
p2119
aS'DariComm-2009-06-24T07-56-54-343-008'
p2120
aS'DariComm-2009-06-24T07-56-54-343-010'
p2121
aS'DariComm-2009-06-24T07-56-54-343-012'
p2122
aS'DariComm-2009-06-24T07-56-54-343-016'
p2123
aS'DariComm-2009-06-24T07-56-54-343-018'
p2124
aS'DariComm-2009-06-24T07-56-54-343-020'
p2125
aS'DariComm-2009-06-24T07-56-54-343-022'
p2126
aS'DariComm-2009-06-24T07-56-54-343-023'
p2127
aS'DariComm-2009-06-24T07-56-54-343-025'
p2128
aS'DariComm-2009-06-24T07-56-54-343-026'
p2129
aS'DariComm-2009-06-24T07-56-54-343-028'
p2130
aS'DariComm-2009-06-24T07-56-54-343-030'
p2131
aS'DariComm-2009-06-24T07-56-54-343-031'
p2132
aS'DariComm-2009-06-24T07-56-54-343-033'
p2133
aS'DariComm-2009-06-24T07-56-54-343-035'
p2134
aS'DariComm-2009-06-24T07-56-54-343-037'
p2135
aS'DariComm-2009-06-24T07-56-54-343-039'
p2136
aS'DariComm-2009-06-24T07-56-54-343-041'
p2137
aS'DariComm-2009-06-24T07-56-54-343-043'
p2138
aS'DariComm-2009-06-24T07-56-54-343-047'
p2139
aS'DariComm-2009-06-24T07-56-54-343-051'
p2140
aS'DariComm-2009-06-24T07-56-54-343-053'
p2141
aS'DariComm-2009-06-24T07-56-54-343-055'
p2142
aS'DariComm-2009-06-24T07-56-54-343-057'
p2143
aS'DariComm-2009-06-24T07-56-54-343-059'
p2144
aS'DariComm-2009-06-24T07-56-54-343-061'
p2145
aS'DariComm-2009-06-24T07-56-54-343-063'
p2146
aS'DariComm-2009-06-24T07-56-54-343-065'
p2147
aS'DariComm-2009-06-24T07-56-54-343-067'
p2148
aS'DariComm-2009-06-24T07-56-54-343-069'
p2149
aS'DariComm-2009-06-24T07-56-54-343-073'
p2150
aS'DariComm-2009-06-24T07-56-54-343-075'
p2151
aS'DariComm-2009-06-24T07-56-54-343-077'
p2152
aS'DariComm-2009-06-24T07-56-54-343-079'
p2153
aS'DariComm-2009-06-24T07-56-54-343-080'
p2154
aS'DariComm-2009-06-24T07-56-54-343-083'
p2155
aS'DariComm-2009-06-24T07-56-54-343-087'
p2156
aS'DariComm-2009-06-24T07-56-54-343-089'
p2157
aS'DariComm-2009-06-24T07-56-54-343-093'
p2158
aS'DariComm-2009-06-24T07-56-54-343-096'
p2159
aS'DariComm-2009-06-24T07-56-54-343-098'
p2160
aS'DariComm-2009-06-24T07-56-54-343-100'
p2161
aS'DariComm-2009-06-24T07-56-54-343-102'
p2162
aS'DariComm-2009-06-24T07-56-54-343-104'
p2163
aS'DariComm-2009-06-24T07-56-54-343-108'
p2164
aS'DariComm-2009-06-24T07-56-54-343-110'
p2165
aS'DariComm-2009-06-24T07-56-54-343-112'
p2166
aS'DariComm-2009-06-24T07-56-54-343-114'
p2167
aS'DariComm-2009-06-24T07-56-54-343-116'
p2168
aS'DariComm-2009-06-24T07-56-54-343-118'
p2169
aS'DariComm-2009-06-24T07-56-54-343-120'
p2170
aS'DariComm-2009-06-24T07-56-54-343-124'
p2171
aS'DariComm-2009-06-24T07-56-54-343-126'
p2172
aS'DariComm-2009-06-24T07-56-54-343-127'
p2173
aS'DariComm-2009-06-24T07-56-54-343-135'
p2174
aS'DariComm-2009-06-24T10-24-29-421-001'
p2175
aS'DariComm-2009-06-24T10-24-29-421-007'
p2176
aS'DariComm-2009-06-24T10-24-29-421-008'
p2177
aS'DariComm-2009-06-24T10-24-29-421-009'
p2178
aS'DariComm-2009-06-24T10-24-29-421-012'
p2179
aS'DariComm-2009-06-24T10-24-29-421-014'
p2180
aS'DariComm-2009-06-24T10-24-29-421-018'
p2181
aS'DariComm-2009-06-24T10-24-29-421-020'
p2182
aS'DariComm-2009-06-24T10-24-29-421-022'
p2183
aS'DariComm-2009-06-24T10-24-29-421-024'
p2184
aS'DariComm-2009-06-24T10-24-29-421-026'
p2185
aS'DariComm-2009-06-24T10-24-29-421-028'
p2186
aS'DariComm-2009-06-24T10-24-29-421-029'
p2187
aS'DariComm-2009-06-24T10-24-29-421-031'
p2188
aS'DariComm-2009-06-24T10-24-29-421-033'
p2189
aS'DariComm-2009-06-24T10-24-29-421-035'
p2190
aS'DariComm-2009-06-24T10-24-29-421-039'
p2191
aS'DariComm-2009-06-24T10-24-29-421-043'
p2192
aS'DariComm-2009-06-24T10-24-29-421-045'
p2193
aS'DariComm-2009-06-24T10-24-29-421-047'
p2194
aS'DariComm-2009-06-24T10-53-31-281-001'
p2195
aS'DariComm-2009-06-24T10-53-31-281-007'
p2196
aS'DariComm-2009-06-24T10-53-31-281-010'
p2197
aS'DariComm-2009-06-24T10-53-31-281-016'
p2198
aS'DariComm-2009-06-24T10-53-31-281-018'
p2199
aS'DariComm-2009-06-24T10-53-31-281-020'
p2200
aS'DariComm-2009-06-24T10-53-31-281-022'
p2201
aS'DariComm-2009-06-24T10-53-31-281-026'
p2202
aS'DariComm-2009-06-24T10-53-31-281-030'
p2203
aS'DariComm-2009-06-24T10-53-31-281-032'
p2204
aS'DariComm-2009-06-24T10-53-31-281-033'
p2205
aS'DariComm-2009-06-24T10-53-31-281-035'
p2206
aS'DariComm-2009-06-24T10-53-31-281-038'
p2207
aS'DariComm-2009-06-24T10-53-31-281-040'
p2208
aS'DariComm-2009-06-24T10-53-31-281-041'
p2209
aS'DariComm-2009-06-24T11-12-07-218-003'
p2210
aS'DariComm-2009-06-24T11-12-07-218-006'
p2211
aS'DariComm-2009-06-24T11-12-07-218-008'
p2212
aS'DariComm-2009-06-24T11-12-07-218-012'
p2213
aS'DariComm-2009-06-24T11-12-07-218-016'
p2214
aS'DariComm-2009-06-24T11-12-07-218-021'
p2215
aS'DariComm-2009-06-24T11-12-07-218-024'
p2216
aS'DariComm-2009-06-24T11-12-07-218-027'
p2217
aS'DariComm-2009-06-24T11-12-07-218-029'
p2218
aS'DariComm-2009-06-24T11-12-07-218-033'
p2219
aS'DariComm-2009-06-24T11-12-07-218-035'
p2220
aS'DariComm-2009-06-24T11-12-07-218-037'
p2221
aS'DariComm-2009-06-24T11-12-07-218-041'
p2222
aS'DariComm-2009-06-24T11-12-07-218-043'
p2223
aS'DariComm-2009-06-24T11-12-07-218-046'
p2224
aS'DariComm-2009-06-24T11-12-07-218-054'
p2225
aS'DariComm-2009-06-24T11-12-07-218-056'
p2226
aS'DariComm-2009-06-24T11-12-07-218-060'
p2227
aS'DariComm-2009-06-24T11-12-07-218-071'
p2228
aS'DariComm-2009-06-24T11-12-07-218-073'
p2229
aS'DariComm-2009-06-24T11-12-07-218-076'
p2230
aS'DariComm-2009-06-24T11-12-07-218-078'
p2231
aS'DariComm-2009-06-24T11-12-07-218-080'
p2232
aS'DariComm-2009-06-24T11-12-07-218-082'
p2233
aS'DariComm-2009-06-24T11-12-07-218-085'
p2234
aS'DariComm-2009-06-24T11-12-07-218-091'
p2235
aS'DariComm-2009-06-24T11-58-01-296-001'
p2236
aS'DariComm-2009-06-24T11-58-01-296-006'
p2237
aS'DariComm-2009-06-24T11-58-01-296-009'
p2238
aS'DariComm-2009-06-24T11-58-01-296-011'
p2239
aS'DariComm-2009-06-24T11-58-01-296-012'
p2240
aS'DariComm-2009-06-24T11-58-01-296-013'
p2241
aS'DariComm-2009-06-24T11-58-01-296-014'
p2242
aS'DariComm-2009-06-24T11-58-01-296-016'
p2243
aS'DariComm-2009-06-24T11-58-01-296-018'
p2244
aS'DariComm-2009-06-24T11-58-01-296-020'
p2245
aS'DariComm-2009-06-24T11-58-01-296-022'
p2246
aS'DariComm-2009-06-24T11-58-01-296-027'
p2247
aS'DariComm-2009-06-24T11-58-01-296-029'
p2248
aS'DariComm-2009-06-24T11-58-01-296-030'
p2249
aS'DariComm-2009-06-24T11-58-01-296-032'
p2250
aS'DariComm-2009-06-24T11-58-01-296-034'
p2251
aS'DariComm-2009-06-24T11-58-01-296-040'
p2252
aS'DariComm-2009-06-24T11-58-01-296-044'
p2253
aS'DariComm-2009-06-24T11-58-01-296-046'
p2254
aS'DariComm-2009-06-24T11-58-01-296-047'
p2255
aS'DariComm-2009-06-24T11-58-01-296-048'
p2256
aS'DariComm-2009-06-24T11-58-01-296-051'
p2257
aS'DariComm-2009-06-24T11-58-01-296-053'
p2258
aS'DariComm-2009-06-24T11-58-01-296-055'
p2259
aS'DariComm-2009-06-24T11-58-01-296-057'
p2260
aS'DariComm-2009-06-24T11-58-01-296-059'
p2261
aS'DariComm-2009-06-24T11-58-01-296-061'
p2262
aS'DariComm-2009-06-24T11-58-01-296-062'
p2263
aS'DariComm-2009-06-24T11-58-01-296-063'
p2264
aS'DariComm-2009-06-24T11-58-01-296-065'
p2265
aS'DariComm-2009-06-24T11-58-01-296-067'
p2266
aS'DariComm-2009-06-24T11-58-01-296-075'
p2267
aS'DariComm-2009-06-24T11-58-01-296-077'
p2268
aS'DariComm-2009-06-24T11-58-01-296-080'
p2269
aS'DariComm-2009-06-24T11-58-01-296-082'
p2270
aS'DariComm-2009-06-24T11-58-01-296-084'
p2271
aS'DariComm-2009-06-24T11-58-01-296-085'
p2272
aS'DariComm-2009-06-24T11-58-01-296-087'
p2273
aS'DariComm-2009-06-24T11-58-01-296-091'
p2274
aS'DariComm-2009-06-24T11-58-01-296-093'
p2275
aS'DariComm-2009-06-24T11-58-01-296-095'
p2276
aS'DariComm-2009-06-24T11-58-01-296-097'
p2277
aS'DariComm-2009-06-24T11-58-01-296-099'
p2278
aS'DariComm-2009-06-24T11-58-01-296-101'
p2279
aS'DariComm-2009-06-24T11-58-01-296-105'
p2280
aS'DariComm-2009-06-24T11-58-01-296-107'
p2281
aS'DariComm-2009-06-24T11-58-01-296-108'
p2282
aS'DariComm-2009-06-24T11-58-01-296-110'
p2283
aS'DariComm-2009-06-24T11-58-01-296-112'
p2284
aS'DariComm-2009-06-24T11-58-01-296-113'
p2285
aS'DariComm-2009-06-24T11-58-01-296-116'
p2286
aS'DariComm-2009-06-24T11-58-01-296-118'
p2287
aS'DariComm-2009-06-24T11-58-01-296-120'
p2288
aS'DariComm-2009-06-24T11-58-01-296-122'
p2289
aS'DariComm-2009-06-24T11-58-01-296-124'
p2290
aS'DariComm-2009-06-24T11-58-01-296-126'
p2291
aS'DariComm-2009-06-24T11-58-01-296-127'
p2292
aS'DariComm-2009-06-24T11-58-01-296-130'
p2293
aS'DariComm-2009-06-24T11-58-01-296-132'
p2294
aS'DariComm-2009-06-25T06-23-38-875-001'
p2295
aS'DariComm-2009-06-25T06-23-38-875-002'
p2296
aS'DariComm-2009-06-25T06-23-38-875-005'
p2297
aS'DariComm-2009-06-25T06-23-38-875-007'
p2298
aS'DariComm-2009-06-25T06-23-38-875-010'
p2299
aS'DariComm-2009-06-25T06-23-38-875-012'
p2300
aS'DariComm-2009-06-25T06-23-38-875-018'
p2301
aS'DariComm-2009-06-25T06-23-38-875-020'
p2302
aS'DariComm-2009-06-25T06-23-38-875-024'
p2303
aS'DariComm-2009-06-25T06-23-38-875-025'
p2304
aS'DariComm-2009-06-25T06-23-38-875-033'
p2305
aS'DariComm-2009-06-25T06-23-38-875-038'
p2306
aS'DariComm-2009-06-25T06-23-38-875-041'
p2307
aS'DariComm-2009-06-25T06-23-38-875-042'
p2308
aS'DariComm-2009-06-25T06-23-38-875-048'
p2309
aS'DariComm-2009-06-25T06-23-38-875-050'
p2310
aS'DariComm-2009-06-25T06-23-38-875-051'
p2311
aS'DariComm-2009-06-25T06-23-38-875-057'
p2312
aS'DariComm-2009-06-25T06-23-38-875-063'
p2313
aS'DariComm-2009-06-25T06-23-38-875-067'
p2314
aS'DariComm-2009-06-25T06-23-38-875-071'
p2315
aS'DariComm-2009-06-25T06-23-38-875-072'
p2316
aS'DariComm-2009-06-25T06-23-38-875-074'
p2317
aS'DariComm-2009-06-25T07-03-07-593-002'
p2318
aS'DariComm-2009-06-25T07-03-07-593-003'
p2319
aS'DariComm-2009-06-25T07-03-07-593-005'
p2320
aS'DariComm-2009-06-25T07-03-07-593-006'
p2321
aS'DariComm-2009-06-25T07-20-55-109-002'
p2322
aS'DariComm-2009-06-25T07-20-55-109-004'
p2323
aS'DariComm-2009-06-25T07-20-55-109-007'
p2324
aS'DariComm-2009-06-25T07-20-55-109-008'
p2325
aS'DariComm-2009-06-25T07-20-55-109-010'
p2326
aS'DariComm-2009-06-25T07-20-55-109-012'
p2327
aS'DariComm-2009-06-25T07-20-55-109-014'
p2328
aS'DariComm-2009-06-25T07-20-55-109-016'
p2329
aS'DariComm-2009-06-25T07-20-55-109-017'
p2330
aS'DariComm-2009-06-25T07-20-55-109-021'
p2331
aS'DariComm-2009-06-25T07-20-55-109-029'
p2332
aS'DariComm-2009-06-25T07-20-55-109-031'
p2333
aS'DariComm-2009-06-25T07-20-55-109-032'
p2334
aS'DariComm-2009-06-25T07-20-55-109-036'
p2335
aS'DariComm-2009-06-25T07-20-55-109-039'
p2336
aS'DariComm-2009-06-25T07-20-55-109-041'
p2337
aS'DariComm-2009-06-25T07-20-55-109-043'
p2338
aS'DariComm-2009-06-25T07-20-55-109-047'
p2339
aS'DariComm-2009-06-25T07-20-55-109-050'
p2340
aS'DariComm-2009-06-25T07-20-55-109-053'
p2341
aS'DariComm-2009-06-25T07-20-55-109-055'
p2342
aS'DariComm-2009-06-25T07-20-55-109-056'
p2343
aS'DariComm-2009-06-25T07-20-55-109-058'
p2344
aS'DariComm-2009-06-25T07-20-55-109-060'
p2345
aS'DariComm-2009-06-25T07-20-55-109-065'
p2346
aS'DariComm-2009-06-25T07-20-55-109-067'
p2347
aS'DariComm-2009-06-25T07-20-55-109-069'
p2348
aS'DariComm-2009-06-25T07-20-55-109-072'
p2349
aS'DariComm-2009-06-25T07-20-55-109-073'
p2350
aS'DariComm-2009-06-25T07-20-55-109-074'
p2351
aS'DariComm-2009-06-25T07-20-55-109-079'
p2352
aS'DariComm-2009-06-25T07-20-55-109-085'
p2353
aS'DariComm-2009-06-25T07-20-55-109-087'
p2354
aS'DariComm-2009-06-25T07-20-55-109-089'
p2355
aS'DariComm-2009-06-25T07-20-55-109-091'
p2356
aS'DariComm-2009-06-25T07-20-55-109-093'
p2357
aS'DariComm-2009-06-25T07-20-55-109-095'
p2358
aS'DariComm-2009-06-25T07-20-55-109-096'
p2359
aS'DariComm-2009-06-25T07-20-55-109-098'
p2360
aS'DariComm-2009-06-25T08-00-12-500-001'
p2361
aS'DariComm-2009-06-25T08-00-12-500-002'
p2362
aS'DariComm-2009-06-25T08-00-12-500-003'
p2363
aS'DariComm-2009-06-25T08-00-12-500-005'
p2364
aS'DariComm-2009-06-25T08-00-12-500-006'
p2365
aS'DariComm-2009-06-25T08-00-12-500-007'
p2366
aS'DariComm-2009-06-25T08-00-12-500-009'
p2367
aS'DariComm-2009-06-25T08-00-12-500-011'
p2368
aS'DariComm-2009-06-25T08-00-12-500-012'
p2369
aS'DariComm-2009-06-25T08-00-12-500-014'
p2370
aS'DariComm-2009-06-25T08-00-12-500-016'
p2371
aS'DariComm-2009-06-25T08-00-12-500-018'
p2372
aS'DariComm-2009-06-25T08-00-12-500-020'
p2373
aS'DariComm-2009-06-25T08-00-12-500-022'
p2374
aS'DariComm-2009-06-25T08-00-12-500-026'
p2375
aS'DariComm-2009-06-25T08-00-12-500-027'
p2376
aS'DariComm-2009-06-25T08-00-12-500-029'
p2377
aS'DariComm-2009-06-25T08-00-12-500-032'
p2378
aS'DariComm-2009-06-25T08-00-12-500-033'
p2379
aS'DariComm-2009-06-25T08-00-12-500-035'
p2380
aS'DariComm-2009-06-25T08-00-12-500-036'
p2381
aS'DariComm-2009-06-25T08-00-12-500-038'
p2382
aS'DariComm-2009-06-25T08-00-12-500-039'
p2383
aS'DariComm-2009-06-25T08-00-12-500-040'
p2384
aS'DariComm-2009-06-25T08-00-12-500-045'
p2385
aS'DariComm-2009-06-25T08-00-12-500-047'
p2386
aS'DariComm-2009-06-25T08-00-12-500-049'
p2387
aS'DariComm-2009-06-25T08-00-12-500-050'
p2388
aS'DariComm-2009-06-25T08-00-12-500-051'
p2389
aS'DariComm-2009-06-25T08-00-12-500-053'
p2390
aS'DariComm-2009-06-25T08-00-12-500-054'
p2391
aS'DariComm-2009-06-25T08-00-12-500-056'
p2392
aS'DariComm-2009-06-25T08-00-12-500-058'
p2393
aS'DariComm-2009-06-25T08-00-12-500-062'
p2394
aS'DariComm-2009-06-25T08-00-12-500-064'
p2395
aS'DariComm-2009-06-25T08-00-12-500-068'
p2396
aS'DariComm-2009-06-25T08-00-12-500-073'
p2397
aS'DariComm-2009-06-25T08-00-12-500-074'
p2398
aS'DariComm-2009-06-25T08-00-12-500-079'
p2399
aS'DariComm-2009-06-25T08-00-12-500-081'
p2400
aS'DariComm-2009-06-25T08-00-12-500-083'
p2401
aS'DariComm-2009-06-25T08-00-12-500-085'
p2402
aS'DariComm-2009-06-25T08-00-12-500-091'
p2403
aS'DariComm-2009-06-25T08-00-12-500-092'
p2404
aS'DariComm-2009-06-25T08-00-12-500-094'
p2405
aS'DariComm-2009-06-25T08-00-12-500-095'
p2406
aS'DariComm-2009-06-25T08-00-12-500-100'
p2407
aS'DariComm-2009-06-25T08-00-12-500-102'
p2408
aS'DariComm-2009-06-25T08-00-12-500-108'
p2409
aS'DariComm-2009-06-25T08-00-12-500-109'
p2410
aS'DariComm-2009-06-25T10-07-07-265-002'
p2411
aS'DariComm-2009-06-25T10-07-07-265-005'
p2412
aS'DariComm-2009-06-25T10-07-07-265-006'
p2413
aS'DariComm-2009-06-25T10-07-07-265-008'
p2414
aS'DariComm-2009-06-25T10-07-07-265-010'
p2415
aS'DariComm-2009-06-25T10-07-07-265-012'
p2416
aS'DariComm-2009-06-25T10-07-07-265-014'
p2417
aS'DariComm-2009-06-25T10-07-07-265-015'
p2418
aS'DariComm-2009-06-25T10-07-07-265-017'
p2419
aS'DariComm-2009-06-25T10-07-07-265-019'
p2420
aS'DariComm-2009-06-25T10-07-07-265-021'
p2421
aS'DariComm-2009-06-25T10-07-07-265-023'
p2422
aS'DariComm-2009-06-25T10-07-07-265-025'
p2423
aS'DariComm-2009-06-25T10-07-07-265-027'
p2424
aS'DariComm-2009-06-25T10-07-07-265-029'
p2425
aS'DariComm-2009-06-25T10-07-07-265-031'
p2426
aS'DariComm-2009-06-25T10-07-07-265-033'
p2427
aS'DariComm-2009-06-25T10-07-07-265-041'
p2428
aS'DariComm-2009-06-25T10-07-07-265-043'
p2429
aS'DariComm-2009-06-25T10-07-07-265-047'
p2430
aS'DariComm-2009-06-25T10-07-07-265-049'
p2431
aS'DariComm-2009-06-25T10-07-07-265-051'
p2432
aS'DariComm-2009-06-25T10-07-07-265-053'
p2433
aS'DariComm-2009-06-25T10-07-07-265-057'
p2434
aS'DariComm-2009-06-25T10-07-07-265-061'
p2435
aS'DariComm-2009-06-25T10-07-07-265-065'
p2436
aS'DariComm-2009-06-25T10-07-07-265-068'
p2437
aS'DariComm-2009-06-25T10-07-07-265-073'
p2438
aS'DariComm-2009-06-25T10-07-07-265-075'
p2439
aS'DariComm-2009-06-25T10-07-07-265-077'
p2440
aS'DariComm-2009-06-25T10-07-07-265-081'
p2441
aS'DariComm-2009-06-25T10-07-07-265-083'
p2442
aS'DariComm-2009-06-25T10-07-07-265-089'
p2443
aS'DariComm-2009-06-25T10-07-07-265-094'
p2444
aS'DariComm-2009-06-25T10-07-07-265-096'
p2445
aS'DariComm-2009-06-25T11-05-11-062-003'
p2446
aS'DariComm-2009-06-25T11-05-11-062-004'
p2447
aS'DariComm-2009-06-25T11-05-11-062-006'
p2448
aS'DariComm-2009-06-25T11-05-11-062-008'
p2449
aS'DariComm-2009-06-25T11-05-11-062-011'
p2450
aS'DariComm-2009-06-25T11-05-11-062-017'
p2451
aS'DariComm-2009-06-25T11-05-11-062-018'
p2452
aS'DariComm-2009-06-25T11-05-11-062-026'
p2453
aS'DariComm-2009-06-25T11-05-11-062-034'
p2454
aS'DariComm-2009-06-25T11-05-11-062-039'
p2455
aS'DariComm-2009-06-25T11-05-11-062-047'
p2456
aS'DariComm-2009-06-25T11-05-11-062-054'
p2457
aS'DariComm-2009-06-25T11-05-11-062-058'
p2458
aS'DariComm-2009-06-25T11-05-11-062-069'
p2459
aS'DariComm-2009-06-25T11-05-11-062-073'
p2460
aS'DariComm-2009-06-25T11-05-11-062-076'
p2461
aS'DariComm-2009-06-25T11-05-11-062-078'
p2462
aS'DariComm-2009-06-25T11-05-11-062-080'
p2463
aS'DariComm-2009-06-25T11-05-11-062-084'
p2464
aS'DariComm-2009-06-25T11-05-11-062-089'
p2465
aS'DariComm-2009-06-25T11-05-11-062-092'
p2466
aS'DariComm-2009-06-25T12-01-55-937-001'
p2467
aS'DariComm-2009-06-25T12-01-55-937-003'
p2468
aS'DariComm-2009-06-25T12-01-55-937-004'
p2469
aS'DariComm-2009-06-25T12-01-55-937-005'
p2470
aS'DariComm-2009-06-25T12-01-55-937-006'
p2471
aS'DariComm-2009-06-25T12-01-55-937-008'
p2472
aS'DariComm-2009-06-25T12-01-55-937-009'
p2473
aS'DariComm-2009-06-25T12-01-55-937-011'
p2474
aS'DariComm-2009-06-25T12-01-55-937-012'
p2475
aS'DariComm-2009-06-25T12-01-55-937-013'
p2476
aS'DariComm-2009-06-25T12-01-55-937-014'
p2477
aS'DariComm-2009-06-25T12-01-55-937-016'
p2478
aS'DariComm-2009-06-25T12-01-55-937-017'
p2479
aS'DariComm-2009-06-25T12-01-55-937-019'
p2480
aS'DariComm-2009-06-25T12-01-55-937-020'
p2481
aS'DariComm-2009-06-25T12-01-55-937-023'
p2482
aS'DariComm-2009-06-25T12-01-55-937-025'
p2483
aS'DariComm-2009-06-25T12-01-55-937-027'
p2484
aS'DariComm-2009-06-25T12-01-55-937-029'
p2485
aS'DariComm-2009-06-25T12-01-55-937-030'
p2486
aS'DariComm-2009-06-25T12-01-55-937-032'
p2487
aS'DariComm-2009-06-25T12-01-55-937-034'
p2488
aS'DariComm-2009-06-25T12-01-55-937-037'
p2489
aS'DariComm-2009-06-25T12-01-55-937-039'
p2490
aS'DariComm-2009-06-25T12-01-55-937-040'
p2491
aS'DariComm-2009-06-25T12-01-55-937-045'
p2492
aS'DariComm-2009-06-25T12-01-55-937-047'
p2493
aS'DariComm-2009-06-25T12-01-55-937-049'
p2494
aS'DariComm-2009-06-25T12-01-55-937-051'
p2495
aS'DariComm-2009-06-25T12-01-55-937-055'
p2496
aS'DariComm-2009-06-25T12-01-55-937-057'
p2497
aS'DariComm-2009-06-25T12-01-55-937-059'
p2498
aS'DariComm-2009-06-25T12-01-55-937-061'
p2499
aS'DariComm-2009-06-25T12-01-55-937-063'
p2500
aS'DariComm-2009-06-25T12-01-55-937-065'
p2501
aS'DariComm-2009-06-25T12-01-55-937-069'
p2502
aS'DariComm-2009-06-25T12-01-55-937-071'
p2503
aS'DariComm-2009-06-25T12-01-55-937-073'
p2504
aS'DariComm-2009-06-25T12-01-55-937-075'
p2505
aS'DariComm-2009-06-25T12-01-55-937-076'
p2506
aS'DariComm-2009-06-25T12-01-55-937-079'
p2507
aS'DariComm-2009-06-25T12-01-55-937-081'
p2508
aS'DariComm-2009-06-25T12-01-55-937-083'
p2509
aS'DariComm-2009-06-25T12-01-55-937-086'
p2510
aS'DariComm-2009-06-25T12-01-55-937-089'
p2511
aS'DariComm-2009-06-25T12-01-55-937-091'
p2512
aS'DariComm-2009-06-26T05-54-47-937-006'
p2513
aS'DariComm-2009-06-26T05-54-47-937-007'
p2514
aS'DariComm-2009-06-26T05-54-47-937-008'
p2515
aS'DariComm-2009-06-26T05-54-47-937-011'
p2516
aS'DariComm-2009-06-26T05-54-47-937-014'
p2517
aS'DariComm-2009-06-26T05-54-47-937-017'
p2518
aS'DariComm-2009-06-26T05-54-47-937-029'
p2519
aS'DariComm-2009-06-26T05-54-47-937-033'
p2520
aS'DariComm-2009-06-26T05-54-47-937-035'
p2521
aS'DariComm-2009-06-26T05-54-47-937-036'
p2522
aS'DariComm-2009-06-26T05-54-47-937-037'
p2523
aS'DariComm-2009-06-26T05-54-47-937-042'
p2524
aS'DariComm-2009-06-26T05-54-47-937-044'
p2525
aS'DariComm-2009-06-26T05-54-47-937-046'
p2526
aS'DariComm-2009-06-26T05-54-47-937-048'
p2527
aS'DariComm-2009-06-26T05-54-47-937-050'
p2528
aS'DariComm-2009-06-26T05-54-47-937-051'
p2529
aS'DariComm-2009-06-26T05-54-47-937-053'
p2530
aS'DariComm-2009-06-26T05-54-47-937-054'
p2531
aS'DariComm-2009-06-26T05-54-47-937-056'
p2532
aS'DariComm-2009-06-26T05-54-47-937-058'
p2533
aS'DariComm-2009-06-26T05-54-47-937-060'
p2534
aS'DariComm-2009-06-26T05-54-47-937-062'
p2535
aS'DariComm-2009-06-26T05-54-47-937-064'
p2536
aS'DariComm-2009-06-26T05-54-47-937-070'
p2537
aS'DariComm-2009-06-26T05-54-47-937-072'
p2538
aS'DariComm-2009-06-26T05-54-47-937-073'
p2539
aS'DariComm-2009-06-26T05-54-47-937-075'
p2540
aS'DariComm-2009-06-26T05-54-47-937-077'
p2541
aS'DariComm-2009-06-26T05-54-47-937-081'
p2542
aS'DariComm-2009-06-26T05-54-47-937-086'
p2543
aS'DariComm-2009-06-26T05-54-47-937-090'
p2544
aS'DariComm-2009-06-26T05-54-47-937-093'
p2545
aS'DariComm-2009-06-26T05-54-47-937-095'
p2546
aS'DariComm-2009-06-26T06-40-25-218-001'
p2547
aS'DariComm-2009-06-26T06-40-25-218-002'
p2548
aS'DariComm-2009-06-26T06-40-25-218-003'
p2549
aS'DariComm-2009-06-26T06-40-25-218-006'
p2550
aS'DariComm-2009-06-26T06-40-25-218-007'
p2551
aS'DariComm-2009-06-26T06-40-25-218-011'
p2552
aS'DariComm-2009-06-26T06-40-25-218-012'
p2553
aS'DariComm-2009-06-26T06-40-25-218-013'
p2554
aS'DariComm-2009-06-26T06-40-25-218-015'
p2555
aS'DariComm-2009-06-26T06-40-25-218-017'
p2556
aS'DariComm-2009-06-26T06-40-25-218-019'
p2557
aS'DariComm-2009-06-26T06-40-25-218-021'
p2558
aS'DariComm-2009-06-26T06-40-25-218-023'
p2559
aS'DariComm-2009-06-26T06-40-25-218-025'
p2560
aS'DariComm-2009-06-26T06-40-25-218-027'
p2561
aS'DariComm-2009-06-26T06-40-25-218-030'
p2562
aS'DariComm-2009-06-26T06-55-36-218-001'
p2563
aS'DariComm-2009-06-26T06-55-36-218-004'
p2564
aS'DariComm-2009-06-26T06-55-36-218-006'
p2565
aS'DariComm-2009-06-26T06-55-36-218-007'
p2566
aS'DariComm-2009-06-26T06-55-36-218-008'
p2567
aS'DariComm-2009-06-26T06-55-36-218-010'
p2568
aS'DariComm-2009-06-26T06-55-36-218-013'
p2569
aS'DariComm-2009-06-26T06-55-36-218-015'
p2570
aS'DariComm-2009-06-26T06-55-36-218-017'
p2571
aS'DariComm-2009-06-26T07-09-52-203-002'
p2572
aS'DariComm-2009-06-26T07-09-52-203-003'
p2573
aS'DariComm-2009-06-26T07-09-52-203-004'
p2574
aS'DariComm-2009-06-26T07-09-52-203-005'
p2575
aS'DariComm-2009-06-26T07-09-52-203-006'
p2576
aS'DariComm-2009-06-26T07-09-52-203-007'
p2577
aS'DariComm-2009-06-26T07-09-52-203-009'
p2578
aS'DariComm-2009-06-26T07-09-52-203-011'
p2579
aS'DariComm-2009-06-26T07-09-52-203-013'
p2580
aS'DariComm-2009-06-26T07-09-52-203-015'
p2581
aS'DariComm-2009-06-26T07-09-52-203-017'
p2582
aS'DariComm-2009-06-26T07-09-52-203-018'
p2583
aS'DariComm-2009-06-26T07-09-52-203-019'
p2584
aS'DariComm-2009-06-26T07-09-52-203-021'
p2585
aS'DariComm-2009-06-26T07-09-52-203-023'
p2586
aS'DariComm-2009-06-26T07-09-52-203-025'
p2587
aS'DariComm-2009-06-26T07-09-52-203-027'
p2588
aS'DariComm-2009-06-26T07-09-52-203-029'
p2589
aS'DariComm-2009-06-26T07-09-52-203-032'
p2590
aS'DariComm-2009-06-26T07-09-52-203-034'
p2591
aS'DariComm-2009-06-26T07-09-52-203-043'
p2592
aS'DariComm-2009-06-26T07-09-52-203-044'
p2593
aS'DariComm-2009-06-26T07-09-52-203-045'
p2594
aS'DariComm-2009-06-26T07-09-52-203-046'
p2595
aS'DariComm-2009-06-26T07-09-52-203-048'
p2596
aS'DariComm-2009-06-26T07-09-52-203-056'
p2597
aS'DariComm-2009-06-26T07-09-52-203-057'
p2598
aS'DariComm-2009-06-26T07-09-52-203-058'
p2599
aS'DariComm-2009-06-26T07-09-52-203-063'
p2600
aS'DariComm-2009-06-26T07-09-52-203-068'
p2601
aS'DariComm-2009-06-26T07-09-52-203-070'
p2602
aS'DariComm-2009-06-26T07-09-52-203-073'
p2603
aS'DariComm-2009-06-26T07-09-52-203-077'
p2604
aS'DariComm-2009-06-26T07-09-52-203-079'
p2605
aS'DariComm-2009-06-26T07-09-52-203-080'
p2606
aS'DariComm-2009-06-26T07-09-52-203-082'
p2607
aS'DariComm-2009-06-26T07-09-52-203-084'
p2608
aS'DariComm-2009-06-26T07-09-52-203-085'
p2609
aS'DariComm-2009-06-26T07-09-52-203-086'
p2610
aS'DariComm-2009-06-26T07-09-52-203-088'
p2611
aS'DariComm-2009-06-26T07-09-52-203-091'
p2612
aS'DariComm-2009-06-26T07-09-52-203-093'
p2613
aS'DariComm-2009-06-26T07-09-52-203-095'
p2614
aS'DariComm-2009-06-26T09-34-15-812-001'
p2615
aS'DariComm-2009-06-26T09-34-15-812-004'
p2616
aS'DariComm-2009-06-26T09-34-15-812-006'
p2617
aS'DariComm-2009-06-26T09-34-15-812-007'
p2618
aS'DariComm-2009-06-26T09-34-15-812-009'
p2619
aS'DariComm-2009-06-26T09-34-15-812-010'
p2620
aS'DariComm-2009-06-26T09-34-15-812-012'
p2621
aS'DariComm-2009-06-26T09-34-15-812-014'
p2622
aS'DariComm-2009-06-26T09-34-15-812-017'
p2623
aS'DariComm-2009-06-26T09-34-15-812-019'
p2624
aS'DariComm-2009-06-26T09-34-15-812-021'
p2625
aS'DariComm-2009-06-26T09-34-15-812-023'
p2626
aS'DariComm-2009-06-26T09-34-15-812-024'
p2627
aS'DariComm-2009-06-26T09-34-15-812-026'
p2628
aS'DariComm-2009-06-26T09-34-15-812-027'
p2629
aS'DariComm-2009-06-26T09-34-15-812-028'
p2630
aS'DariComm-2009-06-26T09-34-15-812-029'
p2631
aS'DariComm-2009-06-26T09-34-15-812-033'
p2632
aS'DariComm-2009-06-26T09-34-15-812-035'
p2633
aS'DariComm-2009-06-26T09-34-15-812-036'
p2634
aS'DariComm-2009-06-26T09-34-15-812-038'
p2635
aS'DariComm-2009-06-26T09-34-15-812-039'
p2636
aS'DariComm-2009-06-26T09-34-15-812-042'
p2637
aS'DariComm-2009-06-26T09-34-15-812-043'
p2638
aS'DariComm-2009-06-26T09-34-15-812-045'
p2639
aS'DariComm-2009-06-26T09-34-15-812-047'
p2640
aS'DariComm-2009-06-26T09-34-15-812-048'
p2641
aS'DariComm-2009-06-26T09-34-15-812-050'
p2642
aS'DariComm-2009-06-26T09-34-15-812-054'
p2643
aS'DariComm-2009-06-26T09-34-15-812-056'
p2644
aS'DariComm-2009-06-26T09-34-15-812-057'
p2645
aS'DariComm-2009-06-26T09-34-15-812-058'
p2646
aS'DariComm-2009-06-26T09-34-15-812-060'
p2647
aS'DariComm-2009-06-26T09-34-15-812-061'
p2648
aS'DariComm-2009-06-26T09-34-15-812-062'
p2649
aS'DariComm-2009-06-26T09-34-15-812-065'
p2650
aS'DariComm-2009-06-26T09-34-15-812-066'
p2651
aS'DariComm-2009-06-26T09-34-15-812-067'
p2652
aS'DariComm-2009-06-26T09-34-15-812-069'
p2653
aS'DariComm-2009-06-26T09-34-15-812-071'
p2654
aS'DariComm-2009-06-26T09-34-15-812-073'
p2655
aS'DariComm-2009-06-26T09-34-15-812-074'
p2656
aS'DariComm-2009-06-26T09-34-15-812-075'
p2657
aS'DariComm-2009-06-26T09-34-15-812-079'
p2658
aS'DariComm-2009-06-26T09-34-15-812-081'
p2659
aS'DariComm-2009-06-26T09-34-15-812-083'
p2660
aS'DariComm-2009-06-26T09-34-15-812-084'
p2661
aS'DariComm-2009-06-26T09-34-15-812-086'
p2662
aS'DariComm-2009-06-26T09-34-15-812-088'
p2663
aS'DariComm-2009-06-26T09-34-15-812-089'
p2664
aS'DariComm-2009-06-26T09-34-15-812-091'
p2665
aS'DariComm-2009-06-26T09-34-15-812-094'
p2666
aS'DariComm-2009-06-26T09-34-15-812-096'
p2667
aS'DariComm-2009-06-26T10-19-25-484-001'
p2668
aS'DariComm-2009-06-26T10-19-25-484-002'
p2669
aS'DariComm-2009-06-26T10-19-25-484-003'
p2670
aS'DariComm-2009-06-26T10-19-25-484-005'
p2671
aS'DariComm-2009-06-26T10-19-25-484-006'
p2672
aS'DariComm-2009-06-26T10-19-25-484-008'
p2673
aS'DariComm-2009-06-26T10-19-25-484-009'
p2674
aS'DariComm-2009-06-26T10-19-25-484-012'
p2675
aS'DariComm-2009-06-26T10-19-25-484-014'
p2676
aS'DariComm-2009-06-26T10-19-25-484-015'
p2677
aS'DariComm-2009-06-26T10-19-25-484-017'
p2678
aS'DariComm-2009-06-26T10-19-25-484-021'
p2679
aS'DariComm-2009-06-26T10-19-25-484-026'
p2680
aS'DariComm-2009-06-26T10-19-25-484-029'
p2681
aS'DariComm-2009-06-26T10-19-25-484-033'
p2682
aS'DariComm-2009-06-26T10-19-25-484-034'
p2683
aS'DariComm-2009-06-26T10-19-25-484-043'
p2684
aS'DariComm-2009-06-26T10-19-25-484-045'
p2685
aS'DariComm-2009-06-26T10-19-25-484-049'
p2686
aS'DariComm-2009-06-26T10-19-25-484-051'
p2687
aS'DariComm-2009-06-26T10-19-25-484-055'
p2688
aS'DariComm-2009-06-26T10-19-25-484-058'
p2689
aS'DariComm-2009-06-26T10-19-25-484-060'
p2690
aS'DariComm-2009-06-26T10-19-25-484-061'
p2691
aS'DariComm-2009-06-26T10-19-25-484-064'
p2692
aS'DariComm-2009-06-26T10-19-25-484-065'
p2693
aS'DariComm-2009-06-26T10-19-25-484-068'
p2694
aS'DariComm-2009-06-26T10-19-25-484-069'
p2695
aS'DariComm-2009-06-26T10-19-25-484-071'
p2696
aS'DariComm-2009-06-26T10-19-25-484-075'
p2697
aS'DariComm-2009-06-26T10-19-25-484-077'
p2698
aS'DariComm-2009-06-26T10-19-25-484-078'
p2699
aS'DariComm-2009-06-26T10-19-25-484-079'
p2700
aS'DariComm-2009-06-26T10-19-25-484-082'
p2701
aS'DariComm-2009-06-26T10-19-25-484-085'
p2702
aS'DariComm-2009-06-26T10-19-25-484-086'
p2703
aS'DariComm-2009-06-26T10-19-25-484-089'
p2704
aS'DariComm-2009-06-26T10-19-25-484-090'
p2705
aS'DariComm-2009-06-26T10-19-25-484-093'
p2706
aS'eval_logs_live_04_26_29_SRI-4_2010-04-28T08-10-40-432_003'
p2707
aS'eval_logs_live_04_26_29_SRI-4_2010-04-28T08-10-40-432_006'
p2708
aS'eval_logs_live_04_26_29_SRI-4_2010-04-28T08-10-40-432_012'
p2709
aS'eval_logs_live_04_26_29_SRI-4_2010-04-28T08-10-40-432_014'
p2710
aS'eval_logs_live_04_26_29_SRI-4_2010-04-28T08-10-40-432_016'
p2711
aS'eval_logs_live_04_26_29_SRI-4_2010-04-28T08-10-40-432_018'
p2712
aS'eval_logs_live_04_26_29_SRI-4_2010-04-28T08-10-40-432_022'
p2713
aS'eval_logs_live_04_26_29_SRI-4_2010-04-28T08-10-40-432_024'
p2714
aS'eval_logs_live_04_26_29_SRI-4_2010-04-28T08-10-40-432_029'
p2715
aS'eval_logs_live_04_26_29_SRI-4_2010-04-28T08-10-40-432_031'
p2716
aS'eval_logs_live_04_26_29_SRI-4_2010-04-28T08-10-40-432_033'
p2717
aS'eval_logs_live_04_26_29_SRI-4_2010-04-28T08-10-40-432_036'
p2718
aS'eval_logs_live_04_26_29_SRI-4_2010-04-28T08-10-40-432_039'
p2719
aS'eval_logs_live_04_26_29_SRI-4_2010-04-28T08-10-40-432_042'
p2720
aS'eval_logs_live_04_26_29_SRI-4_2010-04-28T08-10-40-432_044'
p2721
aS'eval_logs_live_04_26_29_SRI-4_2010-04-28T08-10-40-432_046'
p2722
aS'eval_logs_live_04_26_29_SRI-4_2010-04-28T08-10-40-432_050'
p2723
aS'eval_logs_live_04_26_29_SRI-4_2010-04-28T08-10-40-432_052'
p2724
aS'eval_logs_live_04_26_29_SRI-4_2010-04-28T08-10-40-432_054'
p2725
aS'eval_logs_live_04_26_29_SRI-4_2010-04-28T08-10-40-432_056'
p2726
aS'eval_logs_live_04_26_29_SRI-4_2010-04-28T08-10-40-432_062'
p2727
aS'eval_logs_live_04_26_29_SRI-4_2010-04-28T08-10-40-432_066'
p2728
aS'eval_logs_live_04_26_29_SRI-4_2010-04-28T08-10-40-432_068'
p2729
aS'eval_logs_live_04_26_29_SRI-4_2010-04-28T08-10-40-432_072'
p2730
aS'eval_logs_live_04_26_29_SRI-4_2010-04-28T08-10-40-432_074'
p2731
aS'eval_logs_live_04_26_29_SRI-4_2010-04-28T08-10-40-432_076'
p2732
aS'eval_logs_live_04_26_29_SRI-4_2010-04-28T08-10-40-432_082'
p2733
aS'eval_logs_live_04_26_29_SRI-4_2010-04-28T08-10-40-432_084'
p2734
aS'eval_logs_live_04_26_29_SRI-4_2010-04-28T08-10-40-432_088'
p2735
aS'eval_logs_live_04_26_29_SRI-4_2010-04-28T08-10-40-432_090'
p2736
aS'eval_logs_live_04_26_29_SRI-4_2010-04-28T08-10-40-432_092'
p2737
aS'eval_logs_live_04_26_29_SRI-4_2010-04-28T08-10-40-432_098'
p2738
aS'eval_logs_live_04_26_29_SRI-4_2010-04-28T08-10-40-432_100'
p2739
aS'eval_logs_live_04_26_29_SRI-4_2010-04-28T08-10-40-432_104'
p2740
aS'eval_logs_live_04_26_29_SRI-4_2010-04-28T08-10-40-432_106'
p2741
aS'eval_logs_live_04_26_29_SRI-4_2010-04-28T08-10-40-432_109'
p2742
aS'eval_logs_live_04_26_29_SRI-4_2010-04-28T08-10-40-432_113'
p2743
aS'eval_logs_live_04_26_29_SRI-4_2010-04-28T08-10-40-432_119'
p2744
aS'eval_logs_live_04_26_29_SRI-4_2010-04-28T08-10-40-432_123'
p2745
aS'eval_logs_live_04_26_29_SRI-4_2010-04-28T08-10-40-432_125'
p2746
aS'eval_logs_live_04_26_29_SRI-4_2010-04-28T08-10-40-432_127'
p2747
aS'eval_logs_live_04_26_29_SRI-4_2010-04-28T08-10-40-432_129'
p2748
aS'eval_logs_live_04_26_29_SRI-4_2010-04-28T08-10-40-432_131'
p2749
aS'eval_logs_live_04_26_29_SRI-4_2010-04-28T08-10-40-432_135'
p2750
aS'eval_logs_live_04_26_29_SRI-4_2010-04-28T08-10-40-432_137'
p2751
aS'eval_logs_live_04_26_29_SRI-4_2010-04-28T08-10-40-432_141'
p2752
aS'eval_logs_live_04_26_29_SRI-4_2010-04-28T08-10-40-432_147'
p2753
aS'eval_logs_live_04_26_29_SRI-4_2010-04-28T08-10-40-432_149'
p2754
aS'eval_logs_live_04_26_29_SRI-4_2010-04-28T08-10-40-432_151'
p2755
aS'eval_logs_live_04_26_29_SRI-4_2010-04-28T08-10-40-432_153'
p2756
aS'eval_logs_live_04_26_29_SRI-4_2010-04-28T08-10-40-432_155'
p2757
aS'eval_logs_live_04_26_29_SRI-4_2010-04-28T08-10-40-432_157'
p2758
aS'eval_logs_live_04_26_29_SRI-4_2010-04-28T08-10-40-432_159'
p2759
aS'eval_logs_live_04_26_29_SRI-4_2010-04-28T08-10-40-432_161'
p2760
aS'eval_logs_live_04_26_29_SRI-4_2010-04-28T08-10-40-432_163'
p2761
aS'eval_logs_live_04_26_29_SRI-4_2010-04-28T08-10-40-432_165'
p2762
aS'eval_logs_live_04_26_29_SRI-4_2010-04-28T08-10-40-432_167'
p2763
aS'eval_logs_live_04_26_29_SRI-4_2010-04-28T08-10-40-432_171'
p2764
aS'eval_logs_live_04_26_29_SRI-4_2010-04-28T08-10-40-432_180'
p2765
aS'eval_logs_live_04_26_29_SRI-4_2010-04-28T08-10-40-432_182'
p2766
aS'eval_logs_live_04_26_29_SRI-4_2010-04-28T08-10-40-432_184'
p2767
aS'eval_logs_live_04_26_29_SRI-4_2010-04-28T08-10-40-432_186'
p2768
aS'eval_logs_live_04_26_29_SRI-4_2010-04-28T08-10-40-432_188'
p2769
aS'eval_logs_live_04_26_29_SRI-4_2010-04-28T08-10-40-432_190'
p2770
aS'eval_logs_live_04_26_29_SRI-4_2010-04-28T08-10-40-432_194'
p2771
aS'eval_logs_live_04_26_29_SRI-4_2010-04-28T08-10-40-432_196'
p2772
aS'eval_logs_live_04_26_29_SRI-4_2010-04-28T08-10-40-432_198'
p2773
aS'eval_logs_live_04_26_29_SRI-4_2010-04-28T08-10-40-432_200'
p2774
aS'eval_logs_live_04_26_29_SRI-4_2010-04-28T08-10-40-432_202'
p2775
aS'eval_logs_live_04_26_29_SRI-4_2010-04-28T08-10-40-432_204'
p2776
aS'eval_logs_live_04_26_29_SRI-4_2010-04-28T08-10-40-432_206'
p2777
aS'eval_logs_live_04_26_29_SRI-4_2010-04-28T08-10-40-432_208'
p2778
aS'eval_logs_live_04_26_29_SRI-4_2010-04-28T08-10-40-432_210'
p2779
aS'eval_logs_live_04_26_29_SRI-4_2010-04-28T08-10-40-432_212'
p2780
aS'eval_logs_live_04_26_29_SRI-4_2010-04-28T08-10-40-432_218'
p2781
aS'eval_logs_live_04_26_29_SRI-4_2010-04-28T08-10-40-432_220'
p2782
aS'eval_logs_live_04_26_29_SRI-4_2010-04-28T08-10-40-432_224'
p2783
aS'eval_logs_live_04_26_29_SRI-4_2010-04-28T08-10-40-432_226'
p2784
aS'eval_logs_live_04_26_29_SRI-4_2010-04-28T08-10-40-432_240'
p2785
aS'eval_logs_live_04_26_29_SRI-4_2010-04-28T08-10-40-432_242'
p2786
aS'eval_logs_live_04_26_29_SRI-4_2010-04-28T08-10-40-432_248'
p2787
aS'eval_logs_live_04_26_29_SRI-4_2010-04-28T08-10-40-432_252'
p2788
aS'eval_logs_live_04_26_29_SRI-4_2010-04-28T08-10-40-432_254'
p2789
aS'eval_logs_live_04_26_29_SRI-4_2010-04-28T09-58-39-632_007'
p2790
aS'eval_logs_live_04_26_29_SRI-4_2010-04-28T10-09-30-322_002'
p2791
aS'eval_logs_live_04_26_29_SRI-4_2010-04-28T10-09-30-322_005'
p2792
aS'eval_logs_live_04_26_29_SRI-4_2010-04-28T10-09-30-322_007'
p2793
aS'eval_logs_live_04_26_29_SRI-4_2010-04-28T10-09-30-322_009'
p2794
aS'eval_logs_live_04_26_29_SRI-4_2010-04-28T10-09-30-322_017'
p2795
aS'eval_logs_live_04_26_29_SRI-4_2010-04-28T10-09-30-322_019'
p2796
aS'eval_logs_live_04_26_29_SRI-4_2010-04-28T10-09-30-322_021'
p2797
aS'eval_logs_live_04_26_29_SRI-4_2010-04-28T10-09-30-322_025'
p2798
aS'eval_logs_live_04_26_29_SRI-4_2010-04-28T10-09-30-322_027'
p2799
aS'eval_logs_live_04_26_29_SRI-4_2010-04-28T10-09-30-322_031'
p2800
aS'eval_logs_live_04_26_29_SRI-4_2010-04-28T10-09-30-322_033'
p2801
aS'eval_logs_live_04_26_29_SRI-4_2010-04-28T10-09-30-322_035'
p2802
aS'eval_logs_live_04_26_29_SRI-4_2010-04-28T10-09-30-322_037'
p2803
aS'eval_logs_live_04_26_29_SRI-4_2010-04-28T10-09-30-322_039'
p2804
aS'eval_logs_live_04_26_29_SRI-4_2010-04-28T10-09-30-322_041'
p2805
aS'eval_logs_live_04_26_29_SRI-4_2010-04-28T10-09-30-322_043'
p2806
aS'eval_logs_live_04_26_29_SRI-4_2010-04-28T10-09-30-322_047'
p2807
aS'eval_logs_live_04_26_29_SRI-4_2010-04-28T10-09-30-322_049'
p2808
aS'eval_logs_live_04_26_29_SRI-4_2010-04-28T10-09-30-322_051'
p2809
aS'eval_logs_live_04_26_29_SRI-4_2010-04-28T10-09-30-322_053'
p2810
aS'eval_logs_live_04_26_29_SRI-4_2010-04-28T10-09-30-322_055'
p2811
aS'eval_logs_live_04_26_29_SRI-4_2010-04-28T10-09-30-322_057'
p2812
aS'eval_logs_live_04_26_29_SRI-4_2010-04-28T10-09-30-322_061'
p2813
aS'eval_logs_live_04_26_29_SRI-4_2010-04-28T10-09-30-322_063'
p2814
aS'eval_logs_live_04_26_29_SRI-4_2010-04-28T10-09-30-322_065'
p2815
aS'eval_logs_live_04_26_29_SRI-4_2010-04-28T10-09-30-322_067'
p2816
aS'eval_logs_live_04_26_29_SRI-4_2010-04-28T10-09-30-322_069'
p2817
aS'eval_logs_live_04_26_29_SRI-4_2010-04-28T10-09-30-322_079'
p2818
aS'eval_logs_live_04_26_29_SRI-4_2010-04-28T10-09-30-322_081'
p2819
aS'eval_logs_live_04_26_29_SRI-4_2010-04-28T10-09-30-322_087'
p2820
aS'eval_logs_live_04_26_29_SRI-4_2010-04-28T10-09-30-322_089'
p2821
aS'eval_logs_live_04_26_29_SRI-4_2010-04-28T10-09-30-322_094'
p2822
aS'eval_logs_live_04_26_29_SRI-4_2010-04-28T10-09-30-322_100'
p2823
aS'eval_logs_live_04_26_29_SRI-4_2010-04-28T10-09-30-322_102'
p2824
aS'eval_logs_live_04_26_29_SRI-4_2010-04-28T10-09-30-322_104'
p2825
aS'eval_logs_live_04_26_29_SRI-4_2010-04-28T10-09-30-322_106'
p2826
aS'eval_logs_live_04_26_29_SRI-4_2010-04-28T10-09-30-322_110'
p2827
aS'eval_logs_live_04_26_29_SRI-4_2010-04-28T10-09-30-322_112'
p2828
aS'eval_logs_live_04_26_29_SRI-4_2010-04-28T10-09-30-322_116'
p2829
aS'eval_logs_live_04_26_29_SRI-4_2010-04-28T10-09-30-322_120'
p2830
aS'eval_logs_live_04_26_29_SRI-4_2010-04-28T10-09-30-322_122'
p2831
aS'eval_logs_live_04_26_29_SRI-4_2010-04-28T10-09-30-322_124'
p2832
aS'eval_logs_live_04_26_29_SRI-4_2010-04-28T10-09-30-322_126'
p2833
aS'eval_logs_live_04_26_29_SRI-4_2010-04-28T10-09-30-322_130'
p2834
aS'eval_logs_live_04_26_29_SRI-4_2010-04-28T10-09-30-322_132'
p2835
aS'eval_logs_live_04_26_29_SRI-4_2010-04-28T10-09-30-322_134'
p2836
aS'eval_logs_live_04_26_29_SRI-4_2010-04-28T10-09-30-322_138'
p2837
aS'eval_logs_live_04_26_29_SRI-4_2010-04-28T10-09-30-322_140'
p2838
aS'eval_logs_live_04_26_29_SRI-4_2010-04-28T10-09-30-322_144'
p2839
aS'eval_logs_live_04_26_29_SRI-4_2010-04-28T10-09-30-322_146'
p2840
aS'eval_logs_live_04_26_29_SRI-4_2010-04-28T10-09-30-322_148'
p2841
aS'eval_logs_live_04_26_29_SRI-4_2010-04-28T10-09-30-322_152'
p2842
aS'eval_logs_live_04_26_29_SRI-4_2010-04-28T10-09-30-322_154'
p2843
aS'eval_logs_live_04_26_29_SRI-4_2010-04-28T10-09-30-322_156'
p2844
aS'eval_logs_live_04_26_29_SRI-4_2010-04-28T10-09-30-322_160'
p2845
aS'eval_logs_live_04_26_29_SRI-4_2010-04-28T10-09-30-322_163'
p2846
aS'eval_logs_live_04_26_29_SRI-4_2010-04-28T10-09-30-322_165'
p2847
aS'eval_logs_live_04_26_29_SRI-4_2010-04-28T10-09-30-322_167'
p2848
aS'eval_logs_live_04_26_29_SRI-4_2010-04-28T10-09-30-322_175'
p2849
aS'eval_logs_live_04_26_29_SRI-4_2010-04-28T10-09-30-322_177'
p2850
aS'eval_logs_live_04_26_29_SRI-4_2010-04-28T10-09-30-322_181'
p2851
aS'eval_logs_live_04_26_29_SRI-4_2010-04-28T10-09-30-322_183'
p2852
aS'eval_logs_live_04_26_29_SRI-4_2010-04-28T10-09-30-322_185'
p2853
aS'eval_logs_live_04_26_29_SRI-4_2010-04-28T10-09-30-322_187'
p2854
aS'eval_logs_live_04_26_29_SRI-4_2010-04-28T10-09-30-322_189'
p2855
aS'eval_logs_live_04_26_29_SRI-4_2010-04-28T10-09-30-322_192'
p2856
aS'eval_logs_live_04_26_29_SRI-4_2010-04-28T10-09-30-322_193'
p2857
aS'eval_logs_live_04_26_29_SRI-4_2010-04-28T11-10-32-815_003'
p2858
aS'eval_logs_live_04_26_29_SRI-4_2010-04-28T11-10-32-815_006'
p2859
aS'eval_logs_live_04_26_29_SRI-4_2010-04-28T11-10-32-815_012'
p2860
aS'eval_logs_live_04_26_29_SRI-4_2010-04-28T11-10-32-815_014'
p2861
aS'eval_logs_live_04_26_29_SRI-4_2010-04-28T11-10-32-815_016'
p2862
aS'eval_logs_live_04_26_29_SRI-4_2010-04-28T11-10-32-815_018'
p2863
aS'eval_logs_live_04_26_29_SRI-4_2010-04-28T11-10-32-815_020'
p2864
aS'eval_logs_live_04_26_29_SRI-4_2010-04-28T11-10-32-815_022'
p2865
aS'eval_logs_live_04_26_29_SRI-4_2010-04-28T11-10-32-815_024'
p2866
aS'eval_logs_live_04_26_29_SRI-4_2010-04-28T11-10-32-815_026'
p2867
aS'eval_logs_live_04_26_29_SRI-4_2010-04-28T11-10-32-815_028'
p2868
aS'eval_logs_live_04_26_29_SRI-4_2010-04-28T11-10-32-815_030'
p2869
aS'eval_logs_live_04_26_29_SRI-4_2010-04-28T11-10-32-815_032'
p2870
aS'eval_logs_live_04_26_29_SRI-4_2010-04-28T11-10-32-815_035'
p2871
aS'eval_logs_live_04_26_29_SRI-4_2010-04-28T11-10-32-815_042'
p2872
aS'eval_logs_live_04_26_29_SRI-4_2010-04-28T11-10-32-815_048'
p2873
aS'eval_logs_live_04_26_29_SRI-4_2010-04-28T11-10-32-815_056'
p2874
aS'eval_logs_live_04_26_29_SRI-4_2010-04-28T13-35-06-667_005'
p2875
aS'eval_logs_live_04_26_29_SRI-4_2010-04-28T13-35-06-667_008'
p2876
aS'eval_logs_live_04_26_29_SRI-4_2010-04-28T13-35-06-667_012'
p2877
aS'eval_logs_live_04_26_29_SRI-4_2010-04-28T13-35-06-667_013'
p2878
aS'eval_logs_live_04_26_29_SRI-4_2010-04-28T13-35-06-667_017'
p2879
aS'eval_logs_live_04_26_29_SRI-4_2010-04-28T13-35-06-667_021'
p2880
aS'eval_logs_live_04_26_29_SRI-4_2010-04-28T13-35-06-667_023'
p2881
aS'eval_logs_live_04_26_29_SRI-4_2010-04-28T13-35-06-667_025'
p2882
aS'eval_logs_live_04_26_29_SRI-4_2010-04-28T13-35-06-667_031'
p2883
aS'eval_logs_live_04_26_29_SRI-4_2010-04-28T13-35-06-667_033'
p2884
aS'eval_logs_live_04_26_29_SRI-4_2010-04-28T13-35-06-667_035'
p2885
aS'eval_logs_live_04_26_29_SRI-4_2010-04-28T13-35-06-667_039'
p2886
aS'eval_logs_live_04_26_29_SRI-4_2010-04-28T13-35-06-667_041'
p2887
aS'eval_logs_live_04_26_29_SRI-4_2010-04-28T13-35-06-667_043'
p2888
aS'eval_logs_live_04_26_29_SRI-4_2010-04-28T13-35-06-667_045'
p2889
aS'eval_logs_live_04_26_29_SRI-4_2010-04-28T13-35-06-667_047'
p2890
aS'eval_logs_live_04_26_29_SRI-4_2010-04-28T13-35-06-667_049'
p2891
aS'eval_logs_live_04_26_29_SRI-4_2010-04-28T13-35-06-667_051'
p2892
aS'eval_logs_live_04_26_29_SRI-4_2010-04-28T13-35-06-667_053'
p2893
aS'eval_logs_live_04_26_29_SRI-4_2010-04-28T13-35-06-667_055'
p2894
aS'eval_logs_live_04_26_29_SRI-4_2010-04-28T13-35-06-667_061'
p2895
aS'eval_logs_live_04_26_29_SRI-4_2010-04-28T13-35-06-667_063'
p2896
aS'eval_logs_live_04_26_29_SRI-4_2010-04-28T13-35-06-667_069'
p2897
aS'eval_logs_live_04_26_29_SRI-4_2010-04-28T13-35-06-667_071'
p2898
aS'eval_logs_live_04_26_29_SRI-4_2010-04-28T13-35-06-667_073'
p2899
aS'eval_logs_live_04_26_29_SRI-4_2010-04-28T13-35-06-667_075'
p2900
aS'eval_logs_live_04_26_29_SRI-4_2010-04-28T13-35-06-667_077'
p2901
aS'eval_logs_live_04_26_29_SRI-4_2010-04-28T13-35-06-667_079'
p2902
aS'eval_logs_live_04_26_29_SRI-4_2010-04-28T13-35-06-667_081'
p2903
aS'eval_logs_live_04_26_29_SRI-4_2010-04-28T13-35-06-667_083'
p2904
aS'eval_logs_live_04_26_29_SRI-4_2010-04-28T13-35-06-667_085'
p2905
aS'eval_logs_live_04_26_29_SRI-4_2010-04-28T13-35-06-667_087'
p2906
aS'eval_logs_live_04_26_29_SRI-4_2010-04-28T13-35-06-667_089'
p2907
aS'eval_logs_live_04_26_29_SRI-4_2010-04-28T13-35-06-667_093'
p2908
aS'eval_logs_live_04_26_29_SRI-4_2010-04-28T13-35-06-667_097'
p2909
aS'eval_logs_live_04_26_29_SRI-4_2010-04-28T13-35-06-667_099'
p2910
aS'eval_logs_live_04_26_29_SRI-4_2010-04-28T13-35-06-667_101'
p2911
aS'eval_logs_live_04_26_29_SRI-4_2010-04-28T13-35-06-667_103'
p2912
aS'eval_logs_live_04_26_29_SRI-4_2010-04-28T14-07-52-432_011'
p2913
aS'eval_logs_live_04_26_29_SRI-4_2010-04-28T14-07-52-432_013'
p2914
aS'eval_logs_live_04_26_29_SRI-4_2010-04-28T14-07-52-432_016'
p2915
aS'eval_logs_live_04_26_29_SRI-4_2010-04-28T14-07-52-432_017'
p2916
aS'eval_logs_live_04_26_29_SRI-4_2010-04-28T14-07-52-432_019'
p2917
aS'eval_logs_live_04_26_29_SRI-4_2010-04-28T14-07-52-432_023'
p2918
aS'eval_logs_live_04_26_29_SRI-4_2010-04-28T14-07-52-432_027'
p2919
aS'eval_logs_live_04_26_29_SRI-4_2010-04-28T14-07-52-432_029'
p2920
aS'eval_logs_live_04_26_29_SRI-4_2010-04-28T14-07-52-432_031'
p2921
aS'eval_logs_live_04_26_29_SRI-4_2010-04-28T14-07-52-432_034'
p2922
aS'eval_logs_live_04_26_29_SRI-4_2010-04-28T14-07-52-432_036'
p2923
aS'eval_logs_live_04_26_29_SRI-4_2010-04-28T14-07-52-432_038'
p2924
aS'eval_logs_live_04_26_29_SRI-4_2010-04-28T14-07-52-432_044'
p2925
aS'eval_logs_live_04_26_29_SRI-4_2010-04-28T14-07-52-432_048'
p2926
aS'eval_logs_live_04_26_29_SRI-4_2010-04-28T14-07-52-432_052'
p2927
aS'eval_logs_live_04_26_29_SRI-4_2010-04-28T14-07-52-432_054'
p2928
aS'eval_logs_live_04_26_29_SRI-4_2010-04-28T14-07-52-432_056'
p2929
aS'eval_logs_live_04_26_29_SRI-4_2010-04-28T14-07-52-432_060'
p2930
aS'eval_logs_live_04_26_29_SRI-4_2010-04-28T14-07-52-432_062'
p2931
aS'eval_logs_live_04_26_29_SRI-4_2010-04-28T14-07-52-432_070'
p2932
a.