ccopy_reg
_reconstructor
p0
(csklearn.linear_model.base
LinearRegression
p1
c__builtin__
object
p2
Ntp3
Rp4
(dp5
S'normalize'
p6
I01
sS'intercept_'
p7
cnumpy.core.multiarray
scalar
p8
(cnumpy
dtype
p9
(S'f8'
p10
I0
I1
tp11
Rp12
(I3
S'<'
p13
NNNI-1
I-1
I0
tp14
bS'F}\x1c\x0e\xf3\xf8\x00@'
p15
tp16
Rp17
sS'residues_'
p18
cnumpy.core.multiarray
_reconstruct
p19
(cnumpy
ndarray
p20
(I0
tp21
S'b'
p22
tp23
Rp24
(I1
(I0
tp25
g12
I00
S''
p26
tp27
bsS'fit_intercept'
p28
I01
sS'coef_'
p29
g19
(g20
(I0
tp30
g22
tp31
Rp32
(I1
(I5
tp33
g12
I00
S'Y\\\xc4y\x88\xbd\xff\xbf\x02\xfd"\x0f\x90\x14&\xc0rB\xe0m\x0e\x0f\x1f=s\xe10v\x14\xb4&@\t\xa6"\xa2j?\xaf?'
p34
tp35
bsS'copy_X'
p36
I01
sS'rank_'
p37
I4
sS'singular_'
p38
g19
(g20
(I0
tp39
g22
tp40
Rp41
(I1
(I5
tp42
g12
I00
S'\xecSf\r\x97"\xfd?\xd7$Kx&\xbe\xe8?M.\x17/\x11@\xd2?Sb\xfd\x0b"\x14\xb2?z\x9d\xdd}\x0b\xffM<'
p43
tp44
bsb.